LX51 LINKER/LOCATER V4.66.93.0                                                          06/10/2021  10:13:51  PAGE 1


LX51 LINKER/LOCATER V4.66.93.0, INVOKED BY:
C:\KEIL_V5\C51\BIN\LX51.EXE .\list\main.obj, .\list\STC8A_GPIO.obj, .\list\STC8A_I2C.obj, .\list\STC8A_I2C_Isr.obj, .\li
>> st\STC8A_NVIC.obj, .\list\STC8A_Timer.obj, .\list\STC8A_Timer_Isr.obj TO .\list\IIC_RTC PRINT (.\list\IIC_RTC.map) RE
>> MOVEUNUSED


CPU MODE:     8051 MODE
MEMORY MODEL: SMALL


INPUT MODULES INCLUDED:
  .\list\main.obj (MAIN)
         COMMENT TYPE 0: C51 V9.59.0.0
  .\list\STC8A_GPIO.obj (STC8A_GPIO)
         COMMENT TYPE 0: C51 V9.59.0.0
  .\list\STC8A_I2C.obj (STC8A_I2C)
         COMMENT TYPE 0: C51 V9.59.0.0
  .\list\STC8A_I2C_Isr.obj (STC8A_I2C_ISR)
         COMMENT TYPE 0: C51 V9.59.0.0
  .\list\STC8A_NVIC.obj (STC8A_NVIC)
         COMMENT TYPE 0: C51 V9.59.0.0
  .\list\STC8A_Timer.obj (STC8A_TIMER)
         COMMENT TYPE 0: C51 V9.59.0.0
  .\list\STC8A_Timer_Isr.obj (STC8A_TIMER_ISR)
         COMMENT TYPE 0: C51 V9.59.0.0
  C:\KEIL_V5\C51\LIB\C51S.LIB (?C_STARTUP)
         COMMENT TYPE 1: A51 / ASM51 Assembler
  C:\KEIL_V5\C51\LIB\C51S.LIB (?C?CLDPTR)
         COMMENT TYPE 1: A51 / ASM51 Assembler
  C:\KEIL_V5\C51\LIB\C51S.LIB (?C?CLDOPTR)
         COMMENT TYPE 1: A51 / ASM51 Assembler
  C:\KEIL_V5\C51\LIB\C51S.LIB (?C?CSTPTR)
         COMMENT TYPE 1: A51 / ASM51 Assembler
  C:\KEIL_V5\C51\LIB\C51S.LIB (?C?ILDOPTR)
         COMMENT TYPE 1: A51 / ASM51 Assembler


ACTIVE MEMORY CLASSES OF MODULE:  .\list\IIC_RTC (MAIN)

BASE        START       END         USED      MEMORY CLASS
==========================================================
C:000000H   C:000000H   C:00FFFFH   0008E3H   CODE
I:000000H   I:000000H   I:00007FH   000027H   DATA
C:000000H   C:000000H   C:00FFFFH   000043H   CONST
I:000020H.0 I:000020H.0 I:00002FH.7 000000H.2 BIT
X:000000H   X:000000H   X:00FFFFH   000008H   XDATA
I:000000H   I:000000H   I:0000FFH   000001H   IDATA


MEMORY MAP OF MODULE:  .\list\IIC_RTC (MAIN)


START     STOP      LENGTH    ALIGN  RELOC    MEMORY CLASS   SEGMENT NAME
=========================================================================

* * * * * * * * * * *   D A T A   M E M O R Y   * * * * * * * * * * * * *
000000H   000007H   000008H   ---    AT..     DATA           "REG BANK 0"
000008H   00001BH   000014H   BYTE   UNIT     DATA           ?DT?MAIN
00001CH   00001EH   000003H   BYTE   UNIT     DATA           ?DT?STC8A_I2C_ISR
00001FH.0 00001FH.7 000001H.0 ---    ---      **GAP**
000020H.0 000020H.0 000000H.1 BIT    UNIT     BIT            ?BI?MAIN
000020H.1 000020H.1 000000H.1 BIT    UNIT     BIT            ?BI?STC8A_I2C_ISR
000020H.2 000020H   000000H.6 ---    ---      **GAP**
000021H   000028H   000008H   BYTE   UNIT     DATA           _DATA_GROUP_
000029H   000029H   000001H   BYTE   UNIT     IDATA          ?STACK

LX51 LINKER/LOCATER V4.66.93.0                                                        06/10/2021  10:13:51  PAGE 2


* * * * * * * * * * *   C O D E   M E M O R Y   * * * * * * * * * * * * *
000000H   000002H   000003H   ---    OFFS..   CODE           ?CO??C_STARTUP?0
000003H   000007H   000005H   BYTE   UNIT     CODE           ?PR?IO_KEYDELAY?MAIN
000008H   00000AH   000003H   BYTE   UNIT     CODE           ?PR?TIMER0_ISR_HANDLER?STC8A_TIMER_ISR
00000BH   00000DH   000003H   BYTE   OFFS..   CODE           ?STC8A_TIMER_ISR?0000B
00000EH   000019H   00000CH   BYTE   UNIT     CODE           ?PR?WAIT?STC8A_I2C
00001AH   00001AH   000001H   BYTE   UNIT     CODE           ?PR?TIMER1_ISR_HANDLER?STC8A_TIMER_ISR
00001BH   00001DH   000003H   BYTE   OFFS..   CODE           ?STC8A_TIMER_ISR?0001B
00001EH   00005FH   000042H   BYTE   UNIT     CODE           ?PR?READRTC?MAIN
000060H   000060H   000001H   BYTE   UNIT     CODE           ?PR?TIMER2_ISR_HANDLER?STC8A_TIMER_ISR
000061H   000061H   000001H   BYTE   UNIT     CODE           ?PR?TIMER3_ISR_HANDLER?STC8A_TIMER_ISR
000062H   000062H   000001H   BYTE   UNIT     CODE           ?PR?TIMER4_ISR_HANDLER?STC8A_TIMER_ISR
000063H   000065H   000003H   BYTE   OFFS..   CODE           ?STC8A_TIMER_ISR?00063
000066H   000097H   000032H   BYTE   UNIT     CODE           ?PR?_I2C_READNBYTE?STC8A_I2C
000098H   00009AH   000003H   ---    ---      **GAP**
00009BH   00009DH   000003H   BYTE   OFFS..   CODE           ?STC8A_TIMER_ISR?0009B
00009EH   0000A2H   000005H   ---    ---      **GAP**
0000A3H   0000A5H   000003H   BYTE   OFFS..   CODE           ?STC8A_TIMER_ISR?000A3
0000A6H   0000BEH   000019H   BYTE   UNIT     CODE           ?PR?GPIO_CONFIG?MAIN
0000BFH   0000C2H   000004H   ---    ---      **GAP**
0000C3H   0000C5H   000003H   BYTE   OFFS..   CODE           ?STC8A_I2C_ISR?000C3
0000C6H   000328H   000263H   BYTE   UNIT     CODE           ?PR?_TIMER_INILIZE?STC8A_TIMER
000329H   00044EH   000126H   BYTE   UNIT     CODE           ?PR?MAIN?MAIN
00044FH   0004FCH   0000AEH   BYTE   UNIT     CODE           ?PR?I2C_ISR_HANDLER?STC8A_I2C_ISR
0004FDH   00058CH   000090H   BYTE   UNIT     CODE           ?C?LIB_CODE
00058DH   00060FH   000083H   BYTE   UNIT     CODE           ?PR?_I2C_INIT?STC8A_I2C
000610H   000685H   000076H   BYTE   UNIT     CODE           ?PR?IO_KEYSCAN?MAIN
000686H   0006F4H   00006FH   BYTE   UNIT     CODE           ?PR?_NVIC_I2C_INIT?STC8A_NVIC
0006F5H   000741H   00004DH   BYTE   UNIT     CODE           ?PR?WRITERTC?MAIN
000742H   00078EH   00004DH   BYTE   UNIT     CODE           ?PR?_NVIC_TIMER0_INIT?STC8A_NVIC
00078FH   0007D5H   000047H   BYTE   UNIT     CODE           ?PR?DISPLAYRTC?MAIN
0007D6H   00080CH   000037H   BYTE   UNIT     CODE           ?PR?DISPLAYSCAN?MAIN
00080DH   000837H   00002BH   BYTE   UNIT     CODE           ?PR?_I2C_WRITENBYTE?STC8A_I2C
000838H   000858H   000021H   BYTE   UNIT     CODE           ?PR?TIMER_CONFIG?MAIN
000859H   000878H   000020H   BYTE   UNIT     CODE           ?PR?I2C_CONFIG?MAIN
000879H   000896H   00001EH   BYTE   UNIT     CODE           ?PR?RECVACK?STC8A_I2C
000897H   0008A5H   00000FH   BYTE   UNIT     CODE           ?PR?RECVDATA?STC8A_I2C
0008A6H   0008B4H   00000FH   BYTE   UNIT     CODE           ?PR?SENDNAK?STC8A_I2C
0008B5H   0008C2H   00000EH   BYTE   UNIT     CODE           ?PR?_SENDDATA?STC8A_I2C
0008C3H   0008D0H   00000EH   BYTE   UNIT     CODE           ?PR?SENDACK?STC8A_I2C
0008D1H   0008DCH   00000CH   BYTE   UNIT     CODE           ?C_C51STARTUP
0008DDH   0008E5H   000009H   BYTE   UNIT     CODE           ?PR?START?STC8A_I2C
0008E6H   0008EEH   000009H   BYTE   UNIT     CODE           ?PR?STOP?STC8A_I2C
0008EFH   000931H   000043H   BYTE   UNIT     CONST          ?CO?MAIN

* * * * * * * * * * *  X D A T A   M E M O R Y  * * * * * * * * * * * * *
000000H   000007H   000008H   BYTE   UNIT     XDATA          ?XD?STC8A_I2C

* * * * * * * * *   R E M O V E D     S E G M E N T S   * * * * * * * *
   *DEL*:           000277H   BYTE   UNIT     CODE           ?PR?_GPIO_INILIZE?STC8A_GPIO
   *DEL*:           00004DH   BYTE   UNIT     CODE           ?PR?_NVIC_TIMER1_INIT?STC8A_NVIC
   *DEL*:           00001AH   BYTE   UNIT     CODE           ?PR?_NVIC_TIMER2_INIT?STC8A_NVIC
   *DEL*:           00001AH   BYTE   UNIT     CODE           ?PR?_NVIC_TIMER3_INIT?STC8A_NVIC
   *DEL*:           00001BH   BYTE   UNIT     CODE           ?PR?_NVIC_TIMER4_INIT?STC8A_NVIC
   *DEL*:           00004DH   BYTE   UNIT     CODE           ?PR?_NVIC_INT0_INIT?STC8A_NVIC
   *DEL*:           00004DH   BYTE   UNIT     CODE           ?PR?_NVIC_INT1_INIT?STC8A_NVIC
   *DEL*:           000019H   BYTE   UNIT     CODE           ?PR?_NVIC_INT2_INIT?STC8A_NVIC
   *DEL*:           00001AH   BYTE   UNIT     CODE           ?PR?_NVIC_INT3_INIT?STC8A_NVIC
   *DEL*:           00001BH   BYTE   UNIT     CODE           ?PR?_NVIC_INT4_INIT?STC8A_NVIC
   *DEL*:           00004DH   BYTE   UNIT     CODE           ?PR?_NVIC_ADC_INIT?STC8A_NVIC
   *DEL*:           000055H   BYTE   UNIT     CODE           ?PR?_NVIC_CMP_INIT?STC8A_NVIC
   *DEL*:           00004DH   BYTE   UNIT     CODE           ?PR?_NVIC_UART1_INIT?STC8A_NVIC
   *DEL*:           00004EH   BYTE   UNIT     CODE           ?PR?_NVIC_UART2_INIT?STC8A_NVIC
   *DEL*:           000055H   BYTE   UNIT     CODE           ?PR?_NVIC_UART3_INIT?STC8A_NVIC
   *DEL*:           000053H   BYTE   UNIT     CODE           ?PR?_NVIC_UART4_INIT?STC8A_NVIC
LX51 LINKER/LOCATER V4.66.93.0                                                        06/10/2021  10:13:51  PAGE 3


   *DEL*:           000052H   BYTE   UNIT     CODE           ?PR?_NVIC_SPI_INIT?STC8A_NVIC
   *DEL*:           000077H   BYTE   UNIT     CODE           ?PR?_NVIC_PCA_INIT?STC8A_NVIC
   *DEL*:           000047H   BYTE   UNIT     CODE           ?PR?_NVIC_BMM_ADC_INIT?STC8A_NVIC
   *DEL*:           000047H   BYTE   UNIT     CODE           ?PR?_NVIC_BMM_M2M_INIT?STC8A_NVIC
   *DEL*:           000047H   BYTE   UNIT     CODE           ?PR?_NVIC_BMM_SPI_INIT?STC8A_NVIC
   *DEL*:           000047H   BYTE   UNIT     CODE           ?PR?_NVIC_BMM_UART1_TX_INIT?STC8A_NVIC
   *DEL*:           000047H   BYTE   UNIT     CODE           ?PR?_NVIC_BMM_UART1_RX_INIT?STC8A_NVIC
   *DEL*:           000047H   BYTE   UNIT     CODE           ?PR?_NVIC_BMM_UART2_TX_INIT?STC8A_NVIC
   *DEL*:           000047H   BYTE   UNIT     CODE           ?PR?_NVIC_BMM_UART2_RX_INIT?STC8A_NVIC
   *DEL*:           000047H   BYTE   UNIT     CODE           ?PR?_NVIC_BMM_UART3_TX_INIT?STC8A_NVIC
   *DEL*:           000047H   BYTE   UNIT     CODE           ?PR?_NVIC_BMM_UART3_RX_INIT?STC8A_NVIC
   *DEL*:           000047H   BYTE   UNIT     CODE           ?PR?_NVIC_BMM_UART4_TX_INIT?STC8A_NVIC
   *DEL*:           000047H   BYTE   UNIT     CODE           ?PR?_NVIC_BMM_UART4_RX_INIT?STC8A_NVIC
   *DEL*:           000047H   BYTE   UNIT     CODE           ?PR?_NVIC_BMM_LCM_INIT?STC8A_NVIC
   *DEL*:           000036H   BYTE   UNIT     CODE           ?PR?_NVIC_LCM_INIT?STC8A_NVIC



OVERLAY MAP OF MODULE:   .\list\IIC_RTC (MAIN)


FUNCTION/MODULE                          BIT_GROUP   DATA_GROUP 
--> CALLED FUNCTION/MODULE              START  STOP  START  STOP
================================================================
I2C_ISR_HANDLER/STC8A_I2C_ISR           ----- -----  ----- -----

*** NEW ROOT **************************

TIMER0_ISR_HANDLER/STC8A_TIMER_ISR      ----- -----  ----- -----

*** NEW ROOT **************************

TIMER1_ISR_HANDLER/STC8A_TIMER_ISR      ----- -----  ----- -----

*** NEW ROOT **************************

TIMER2_ISR_HANDLER/STC8A_TIMER_ISR      ----- -----  ----- -----

*** NEW ROOT **************************

TIMER3_ISR_HANDLER/STC8A_TIMER_ISR      ----- -----  ----- -----

*** NEW ROOT **************************

TIMER4_ISR_HANDLER/STC8A_TIMER_ISR      ----- -----  ----- -----

*** NEW ROOT **************************

?C_C51STARTUP                           ----- -----  ----- -----
  +--> MAIN/MAIN

MAIN/MAIN                               ----- -----  ----- -----
  +--> GPIO_CONFIG/MAIN
  +--> TIMER_CONFIG/MAIN
  +--> I2C_CONFIG/MAIN
  +--> READRTC/MAIN
  +--> WRITERTC/MAIN
  +--> DISPLAYRTC/MAIN
  +--> DISPLAYSCAN/MAIN
  +--> IO_KEYSCAN/MAIN

GPIO_CONFIG/MAIN                        ----- -----  ----- -----

TIMER_CONFIG/MAIN                       ----- -----  0021H 0026H
  +--> _TIMER_INILIZE/STC8A_TIMER
LX51 LINKER/LOCATER V4.66.93.0                                                        06/10/2021  10:13:51  PAGE 4


  +--> _NVIC_TIMER0_INIT/STC8A_NVIC

_TIMER_INILIZE/STC8A_TIMER              ----- -----  ----- -----

_NVIC_TIMER0_INIT/STC8A_NVIC            ----- -----  ----- -----

I2C_CONFIG/MAIN                         ----- -----  0021H 0026H
  +--> _I2C_INIT/STC8A_I2C
  +--> _NVIC_I2C_INIT/STC8A_NVIC

_I2C_INIT/STC8A_I2C                     ----- -----  ----- -----

_NVIC_I2C_INIT/STC8A_NVIC               ----- -----  ----- -----

READRTC/MAIN                            ----- -----  0021H 0023H
  +--> _I2C_READNBYTE/STC8A_I2C

_I2C_READNBYTE/STC8A_I2C                ----- -----  0024H 0028H
  +--> RECVACK/STC8A_I2C
  +--> START/STC8A_I2C
  +--> _SENDDATA/STC8A_I2C
  +--> RECVDATA/STC8A_I2C
  +--> SENDACK/STC8A_I2C
  +--> SENDNAK/STC8A_I2C
  +--> STOP/STC8A_I2C

RECVACK/STC8A_I2C                       ----- -----  ----- -----
  +--> START/STC8A_I2C
  +--> _SENDDATA/STC8A_I2C
  +--> WAIT/STC8A_I2C

START/STC8A_I2C                         ----- -----  ----- -----
  +--> WAIT/STC8A_I2C

WAIT/STC8A_I2C                          ----- -----  ----- -----

_SENDDATA/STC8A_I2C                     ----- -----  ----- -----
  +--> WAIT/STC8A_I2C

RECVDATA/STC8A_I2C                      ----- -----  ----- -----
  +--> WAIT/STC8A_I2C

SENDACK/STC8A_I2C                       ----- -----  ----- -----
  +--> WAIT/STC8A_I2C

SENDNAK/STC8A_I2C                       ----- -----  ----- -----
  +--> WAIT/STC8A_I2C

STOP/STC8A_I2C                          ----- -----  ----- -----
  +--> WAIT/STC8A_I2C

WRITERTC/MAIN                           ----- -----  0021H 0023H
  +--> _I2C_WRITENBYTE/STC8A_I2C

_I2C_WRITENBYTE/STC8A_I2C               ----- -----  0024H 0028H
  +--> RECVACK/STC8A_I2C
  +--> _SENDDATA/STC8A_I2C
  +--> STOP/STC8A_I2C

DISPLAYRTC/MAIN                         ----- -----  ----- -----

DISPLAYSCAN/MAIN                        ----- -----  ----- -----

IO_KEYSCAN/MAIN                         ----- -----  ----- -----
  +--> IO_KEYDELAY/MAIN
LX51 LINKER/LOCATER V4.66.93.0                                                        06/10/2021  10:13:51  PAGE 5



IO_KEYDELAY/MAIN                        ----- -----  ----- -----



PUBLIC SYMBOLS OF MODULE:  .\list\IIC_RTC (MAIN)


      VALUE       CLASS    TYPE      PUBLIC SYMBOL NAME
      =================================================
      00000024H   DATA     BYTE      ?_I2C_ReadNbyte?BYTE
      00000024H   DATA     BYTE      ?_I2C_WriteNbyte?BYTE
      01000516H   CODE     ---       ?C?CLDOPTR
      010004FDH   CODE     ---       ?C?CLDPTR
      00000000H   NUMBER   ---       ?C?CODESEG
      01000543H   CODE     ---       ?C?CSTPTR
      01000555H   CODE     ---       ?C?ILDOPTR
      00000000H   NUMBER   ---       ?C?XDATASEG
      01000329H   CODE     ---       ?C_START
      01000000H   CODE     ---       ?C_STARTUP
*DEL*:00000000H   CODE     ---       _GPIO_Inilize
      0100058DH   CODE     ---       _I2C_Init
      01000066H   CODE     ---       _I2C_ReadNbyte
      0100080DH   CODE     ---       _I2C_WriteNbyte
*DEL*:00000000H   CODE     ---       _NVIC_ADC_Init
*DEL*:00000000H   CODE     ---       _NVIC_BMM_ADC_Init
*DEL*:00000000H   CODE     ---       _NVIC_BMM_LCM_Init
*DEL*:00000000H   CODE     ---       _NVIC_BMM_M2M_Init
*DEL*:00000000H   CODE     ---       _NVIC_BMM_SPI_Init
*DEL*:00000000H   CODE     ---       _NVIC_BMM_UART1_Rx_Init
*DEL*:00000000H   CODE     ---       _NVIC_BMM_UART1_Tx_Init
*DEL*:00000000H   CODE     ---       _NVIC_BMM_UART2_Rx_Init
*DEL*:00000000H   CODE     ---       _NVIC_BMM_UART2_Tx_Init
*DEL*:00000000H   CODE     ---       _NVIC_BMM_UART3_Rx_Init
*DEL*:00000000H   CODE     ---       _NVIC_BMM_UART3_Tx_Init
*DEL*:00000000H   CODE     ---       _NVIC_BMM_UART4_Rx_Init
*DEL*:00000000H   CODE     ---       _NVIC_BMM_UART4_Tx_Init
*DEL*:00000000H   CODE     ---       _NVIC_CMP_Init
      01000686H   CODE     ---       _NVIC_I2C_Init
*DEL*:00000000H   CODE     ---       _NVIC_INT0_Init
*DEL*:00000000H   CODE     ---       _NVIC_INT1_Init
*DEL*:00000000H   CODE     ---       _NVIC_INT2_Init
*DEL*:00000000H   CODE     ---       _NVIC_INT3_Init
*DEL*:00000000H   CODE     ---       _NVIC_INT4_Init
*DEL*:00000000H   CODE     ---       _NVIC_LCM_Init
*DEL*:00000000H   CODE     ---       _NVIC_PCA_Init
*DEL*:00000000H   CODE     ---       _NVIC_SPI_Init
      01000742H   CODE     ---       _NVIC_Timer0_Init
*DEL*:00000000H   CODE     ---       _NVIC_Timer1_Init
*DEL*:00000000H   CODE     ---       _NVIC_Timer2_Init
*DEL*:00000000H   CODE     ---       _NVIC_Timer3_Init
*DEL*:00000000H   CODE     ---       _NVIC_Timer4_Init
*DEL*:00000000H   CODE     ---       _NVIC_UART1_Init
*DEL*:00000000H   CODE     ---       _NVIC_UART2_Init
*DEL*:00000000H   CODE     ---       _NVIC_UART3_Init
*DEL*:00000000H   CODE     ---       _NVIC_UART4_Init
      010008B5H   CODE     ---       _SendData
      010000C6H   CODE     ---       _Timer_Inilize
*SFR* 000000D0H.6 DATA     BIT       AC
*SFR* 000000E0H   DATA     BYTE      ACC
*SFR* 000000E0H.0 DATA     BIT       ACC0
*SFR* 000000E0H.1 DATA     BIT       ACC1
*SFR* 000000E0H.2 DATA     BIT       ACC2
*SFR* 000000E0H.3 DATA     BIT       ACC3
*SFR* 000000E0H.4 DATA     BIT       ACC4
LX51 LINKER/LOCATER V4.66.93.0                                                        06/10/2021  10:13:51  PAGE 6


*SFR* 000000E0H.5 DATA     BIT       ACC5
*SFR* 000000E0H.6 DATA     BIT       ACC6
*SFR* 000000E0H.7 DATA     BIT       ACC7
*SFR* 000000BCH   DATA     BYTE      ADC_CONTR
*SFR* 000000BDH   DATA     BYTE      ADC_RES
*SFR* 000000BEH   DATA     BYTE      ADC_RESL
*SFR* 000000DEH   DATA     BYTE      ADCCFG
*SFR* 000000EFH   DATA     BYTE      AUXINTIF
*SFR* 0000008EH   DATA     BYTE      AUXR
*SFR* 000000A2H   DATA     BYTE      AUXR1
*SFR* 000000F0H   DATA     BYTE      B
*SFR* 000000F0H.0 DATA     BIT       B0
*SFR* 000000F0H.1 DATA     BIT       B1
*SFR* 000000F0H.2 DATA     BIT       B2
*SFR* 000000F0H.3 DATA     BIT       B3
*SFR* 000000F0H.4 DATA     BIT       B4
*SFR* 000000F0H.5 DATA     BIT       B5
*SFR* 000000F0H.6 DATA     BIT       B6
*SFR* 000000F0H.7 DATA     BIT       B7
      00000020H.0 BIT      BIT       B_1ms
*SFR* 000000A1H   DATA     BYTE      BUS_SPEED
*SFR* 000000FAH   DATA     BYTE      CCAP0H
*SFR* 000000EAH   DATA     BYTE      CCAP0L
*SFR* 000000FBH   DATA     BYTE      CCAP1H
*SFR* 000000EBH   DATA     BYTE      CCAP1L
*SFR* 000000FCH   DATA     BYTE      CCAP2H
*SFR* 000000ECH   DATA     BYTE      CCAP2L
*SFR* 000000DAH   DATA     BYTE      CCAPM0
*SFR* 000000DBH   DATA     BYTE      CCAPM1
*SFR* 000000DCH   DATA     BYTE      CCAPM2
*SFR* 000000D8H.0 DATA     BIT       CCF0
*SFR* 000000D8H.1 DATA     BIT       CCF1
*SFR* 000000D8H.2 DATA     BIT       CCF2
*SFR* 000000D8H.3 DATA     BIT       CCF3
*SFR* 000000D8H   DATA     BYTE      CCON
*SFR* 00000090H.1 DATA     BIT       CCP0
*SFR* 00000090H.0 DATA     BIT       CCP1
*SFR* 000000B0H.7 DATA     BIT       CCP2
*SFR* 000000D8H.7 DATA     BIT       CF
*SFR* 000000F9H   DATA     BYTE      CH
*SFR* 000000E9H   DATA     BYTE      CL
*SFR* 000000B0H.5 DATA     BIT       CLKOUT0
*SFR* 000000B0H.4 DATA     BIT       CLKOUT1
*SFR* 000000D9H   DATA     BYTE      CMOD
*SFR* 000000E6H   DATA     BYTE      CMPCR1
*SFR* 000000E7H   DATA     BYTE      CMPCR2
      00000009H   DATA     BYTE      cnt50ms
*SFR* 000000D8H.6 DATA     BIT       CR
*SFR* 000000D0H.7 DATA     BIT       CY
      0000001BH   DATA     BYTE      display_index
      00000020H.1 BIT      BIT       DisplayFlag
      0100078FH   CODE     ---       DisplayRTC
      010007D6H   CODE     ---       DisplayScan
*SFR* 00000083H   DATA     BYTE      DPH
*SFR* 000000E5H   DATA     BYTE      DPH1
*SFR* 00000082H   DATA     BYTE      DPL
*SFR* 000000E4H   DATA     BYTE      DPL1
*SFR* 000000E3H   DATA     BYTE      DPS
*SFR* 000000A8H.7 DATA     BIT       EA
*SFR* 000000A8H.5 DATA     BIT       EADC
*SFR* 000000A8H.6 DATA     BIT       ELVD
*SFR* 000000A8H.4 DATA     BIT       ES
*SFR* 000000A8H.1 DATA     BIT       ET0
*SFR* 000000A8H.3 DATA     BIT       ET1
*SFR* 000000A8H.0 DATA     BIT       EX0
LX51 LINKER/LOCATER V4.66.93.0                                                        06/10/2021  10:13:51  PAGE 7


*SFR* 000000A8H.2 DATA     BIT       EX1
*SFR* 000000D0H.5 DATA     BIT       F0
*SFR* 000000D0H.1 DATA     BIT       F1
      010000A6H   CODE     ---       GPIO_config
      00000015H   DATA     BYTE      hour
      02000000H   XDATA    ---       I2C_Buffer
      01000859H   CODE     ---       I2C_config
      0100044FH   CODE     ---       I2C_ISR_Handler
      0000001CH   DATA     ---       I2CIsr
*SFR* 000000C3H   DATA     BYTE      IAP_ADDRH
*SFR* 000000C4H   DATA     BYTE      IAP_ADDRL
*SFR* 000000C5H   DATA     BYTE      IAP_CMD
*SFR* 000000C7H   DATA     BYTE      IAP_CONTR
*SFR* 000000C2H   DATA     BYTE      IAP_DATA
*SFR* 000000F5H   DATA     BYTE      IAP_TPS
*SFR* 000000C6H   DATA     BYTE      IAP_TRIG
*SFR* 000000A8H   DATA     BYTE      IE
*SFR* 00000088H.1 DATA     BIT       IE0
*SFR* 00000088H.3 DATA     BIT       IE1
*SFR* 000000AFH   DATA     BYTE      IE2
*SFR* 000000B0H.2 DATA     BIT       INT0
*SFR* 000000B0H.3 DATA     BIT       INT1
*SFR* 000000B0H.6 DATA     BIT       INT2
*SFR* 000000B0H.7 DATA     BIT       INT3
*SFR* 000000B0H.0 DATA     BIT       INT4
*SFR* 0000008FH   DATA     BYTE      INT_CLKO
      01000003H   CODE     ---       IO_KeyDelay
      00000016H   DATA     BYTE      IO_KeyHoldCnt
      01000610H   CODE     ---       IO_KeyScan
      00000014H   DATA     BYTE      IO_KeyState
      00000017H   DATA     BYTE      IO_KeyState1
*SFR* 000000B8H   DATA     BYTE      IP
*SFR* 000000B5H   DATA     BYTE      IP2
*SFR* 000000B6H   DATA     BYTE      IP2H
*SFR* 000000DFH   DATA     BYTE      IP3
*SFR* 000000EEH   DATA     BYTE      IP3H
*SFR* 000000B7H   DATA     BYTE      IPH
*SFR* 0000009DH   DATA     BYTE      IRCBAND
*SFR* 0000009FH   DATA     BYTE      IRTRIM
*SFR* 00000088H.0 DATA     BIT       IT0
*SFR* 00000088H.2 DATA     BIT       IT1
      00000013H   DATA     BYTE      KeyCode
      00000018H   DATA     BYTE      KeyHoldCnt
      0000000AH   DATA     ---       LED8
*SFR* 0000009EH   DATA     BYTE      LIRTRIM
      01000329H   CODE     ---       main
      00000012H   DATA     BYTE      minute
      00000019H   DATA     WORD      msecond
*SFR* 000000D0H.2 DATA     BIT       OV
*SFR* 000000D0H.0 DATA     BIT       P
*SFR* 00000080H   DATA     BYTE      P0
*SFR* 00000080H.0 DATA     BIT       P00
*SFR* 00000080H.1 DATA     BIT       P01
*SFR* 00000080H.2 DATA     BIT       P02
*SFR* 00000080H.3 DATA     BIT       P03
*SFR* 00000080H.4 DATA     BIT       P04
*SFR* 00000080H.5 DATA     BIT       P05
*SFR* 00000080H.6 DATA     BIT       P06
*SFR* 00000080H.7 DATA     BIT       P07
*SFR* 00000094H   DATA     BYTE      P0M0
*SFR* 00000093H   DATA     BYTE      P0M1
*SFR* 00000090H   DATA     BYTE      P1
*SFR* 00000090H.0 DATA     BIT       P10
*SFR* 00000090H.1 DATA     BIT       P11
*SFR* 00000090H.2 DATA     BIT       P12
LX51 LINKER/LOCATER V4.66.93.0                                                        06/10/2021  10:13:51  PAGE 8


*SFR* 00000090H.3 DATA     BIT       P13
*SFR* 00000090H.4 DATA     BIT       P14
*SFR* 00000090H.5 DATA     BIT       P15
*SFR* 00000090H.6 DATA     BIT       P16
*SFR* 00000090H.7 DATA     BIT       P17
*SFR* 00000092H   DATA     BYTE      P1M0
*SFR* 00000091H   DATA     BYTE      P1M1
*SFR* 000000A0H   DATA     BYTE      P2
*SFR* 000000A0H.0 DATA     BIT       P20
*SFR* 000000A0H.1 DATA     BIT       P21
*SFR* 000000A0H.2 DATA     BIT       P22
*SFR* 000000A0H.3 DATA     BIT       P23
*SFR* 000000A0H.4 DATA     BIT       P24
*SFR* 000000A0H.5 DATA     BIT       P25
*SFR* 000000A0H.6 DATA     BIT       P26
*SFR* 000000A0H.7 DATA     BIT       P27
*SFR* 00000096H   DATA     BYTE      P2M0
*SFR* 00000095H   DATA     BYTE      P2M1
*SFR* 000000B0H   DATA     BYTE      P3
*SFR* 000000B0H.0 DATA     BIT       P30
*SFR* 000000B0H.1 DATA     BIT       P31
*SFR* 000000B0H.2 DATA     BIT       P32
*SFR* 000000B0H.3 DATA     BIT       P33
*SFR* 000000B0H.4 DATA     BIT       P34
*SFR* 000000B0H.5 DATA     BIT       P35
*SFR* 000000B0H.6 DATA     BIT       P36
*SFR* 000000B0H.7 DATA     BIT       P37
*SFR* 000000B2H   DATA     BYTE      P3M0
*SFR* 000000B1H   DATA     BYTE      P3M1
*SFR* 000000C0H   DATA     BYTE      P4
*SFR* 000000C0H.0 DATA     BIT       P40
*SFR* 000000C0H.1 DATA     BIT       P41
*SFR* 000000C0H.2 DATA     BIT       P42
*SFR* 000000C0H.3 DATA     BIT       P43
*SFR* 000000C0H.4 DATA     BIT       P44
*SFR* 000000C0H.5 DATA     BIT       P45
*SFR* 000000C0H.6 DATA     BIT       P46
*SFR* 000000C0H.7 DATA     BIT       P47
*SFR* 000000B4H   DATA     BYTE      P4M0
*SFR* 000000B3H   DATA     BYTE      P4M1
*SFR* 000000C8H   DATA     BYTE      P5
*SFR* 000000C8H.0 DATA     BIT       P50
*SFR* 000000C8H.1 DATA     BIT       P51
*SFR* 000000C8H.2 DATA     BIT       P52
*SFR* 000000C8H.3 DATA     BIT       P53
*SFR* 000000C8H.4 DATA     BIT       P54
*SFR* 000000C8H.5 DATA     BIT       P55
*SFR* 000000C8H.6 DATA     BIT       P56
*SFR* 000000C8H.7 DATA     BIT       P57
*SFR* 000000CAH   DATA     BYTE      P5M0
*SFR* 000000C9H   DATA     BYTE      P5M1
*SFR* 000000E8H   DATA     BYTE      P6
*SFR* 000000E8H.0 DATA     BIT       P60
*SFR* 000000E8H.1 DATA     BIT       P61
*SFR* 000000E8H.2 DATA     BIT       P62
*SFR* 000000E8H.3 DATA     BIT       P63
*SFR* 000000E8H.4 DATA     BIT       P64
*SFR* 000000E8H.5 DATA     BIT       P65
*SFR* 000000E8H.6 DATA     BIT       P66
*SFR* 000000E8H.7 DATA     BIT       P67
*SFR* 000000CCH   DATA     BYTE      P6M0
*SFR* 000000CBH   DATA     BYTE      P6M1
*SFR* 000000F8H   DATA     BYTE      P7
*SFR* 000000F8H.0 DATA     BIT       P70
*SFR* 000000F8H.1 DATA     BIT       P71
LX51 LINKER/LOCATER V4.66.93.0                                                        06/10/2021  10:13:51  PAGE 9


*SFR* 000000F8H.2 DATA     BIT       P72
*SFR* 000000F8H.3 DATA     BIT       P73
*SFR* 000000F8H.4 DATA     BIT       P74
*SFR* 000000F8H.5 DATA     BIT       P75
*SFR* 000000F8H.6 DATA     BIT       P76
*SFR* 000000F8H.7 DATA     BIT       P77
*SFR* 000000E2H   DATA     BYTE      P7M0
*SFR* 000000E1H   DATA     BYTE      P7M1
*SFR* 000000A2H   DATA     BYTE      P_SW1
*SFR* 000000BAH   DATA     BYTE      P_SW2
*SFR* 000000B8H.5 DATA     BIT       PADC
*SFR* 000000F2H   DATA     BYTE      PCA_PWM0
*SFR* 000000F3H   DATA     BYTE      PCA_PWM1
*SFR* 000000F4H   DATA     BYTE      PCA_PWM2
*SFR* 00000087H   DATA     BYTE      PCON
*SFR* 000000B8H.6 DATA     BIT       PLVD
*SFR* 000000B8H.7 DATA     BIT       PPCA
*SFR* 000000B8H.4 DATA     BIT       PS
*SFR* 000000D0H   DATA     BYTE      PSW
*SFR* 000000B8H.1 DATA     BIT       PT0
*SFR* 000000B8H.3 DATA     BIT       PT1
*SFR* 000000F6H   DATA     BYTE      PWMCFG
*SFR* 000000F1H   DATA     BYTE      PWMSET
*SFR* 000000B8H.0 DATA     BIT       PX0
*SFR* 000000B8H.2 DATA     BIT       PX1
*SFR* 00000098H.2 DATA     BIT       RB8
*SFR* 000000B0H.7 DATA     BIT       RD
      0100001EH   CODE     ---       ReadRTC
      0100088EH   CODE     ---       RecvACK
      01000897H   CODE     ---       RecvData
*SFR* 00000098H.4 DATA     BIT       REN
*SFR* 00000098H.0 DATA     BIT       RI
*SFR* 000000D0H.3 DATA     BIT       RS0
*SFR* 000000D0H.4 DATA     BIT       RS1
*SFR* 000000FFH   DATA     BYTE      RSTCFG
*SFR* 000000B0H.0 DATA     BIT       RXD
*SFR* 00000090H.0 DATA     BIT       RXD2
*SFR* 0000009BH   DATA     BYTE      S2BUF
*SFR* 0000009AH   DATA     BYTE      S2CON
*SFR* 000000ADH   DATA     BYTE      S3BUF
*SFR* 000000ACH   DATA     BYTE      S3CON
*SFR* 00000085H   DATA     BYTE      S4BUF
*SFR* 00000084H   DATA     BYTE      S4CON
*SFR* 000000A9H   DATA     BYTE      SADDR
*SFR* 000000B9H   DATA     BYTE      SADEN
*SFR* 00000099H   DATA     BYTE      SBUF
*SFR* 00000098H   DATA     BYTE      SCON
      00000008H   DATA     BYTE      second
      010008C3H   CODE     ---       SendACK
      010008A6H   CODE     ---       SendNAK
*SFR* 00000098H.7 DATA     BIT       SM0
*SFR* 00000098H.6 DATA     BIT       SM1
*SFR* 00000098H.5 DATA     BIT       SM2
*SFR* 00000081H   DATA     BYTE      SP
*SFR* 000000CEH   DATA     BYTE      SPCTL
*SFR* 000000CFH   DATA     BYTE      SPDAT
*SFR* 000000CDH   DATA     BYTE      SPSTAT
      010008DDH   CODE     ---       Start
      010008E6H   CODE     ---       Stop
*SFR* 000000B0H.4 DATA     BIT       T0
*SFR* 000000B0H.5 DATA     BIT       T1
*SFR* 000000D6H   DATA     BYTE      T2H
*SFR* 000000D7H   DATA     BYTE      T2L
*SFR* 000000D4H   DATA     BYTE      T3H
*SFR* 000000D5H   DATA     BYTE      T3L
LX51 LINKER/LOCATER V4.66.93.0                                                        06/10/2021  10:13:51  PAGE 10


*SFR* 000000D2H   DATA     BYTE      T4H
*SFR* 000000D3H   DATA     BYTE      T4L
*SFR* 000000D1H   DATA     BYTE      T4T3M
      0100091AH   CONST    ---       T_COM
      010008EFH   CONST    ---       t_display
      01000922H   CONST    ---       T_KeyTable
*SFR* 000000AEH   DATA     BYTE      TA
*SFR* 00000098H.3 DATA     BIT       TB8
*SFR* 00000088H   DATA     BYTE      TCON
*SFR* 00000088H.5 DATA     BIT       TF0
*SFR* 00000088H.7 DATA     BIT       TF1
*SFR* 0000008CH   DATA     BYTE      TH0
*SFR* 0000008DH   DATA     BYTE      TH1
*SFR* 000000D6H   DATA     BYTE      TH2
*SFR* 000000D4H   DATA     BYTE      TH3
*SFR* 000000D2H   DATA     BYTE      TH4
*SFR* 00000098H.1 DATA     BIT       TI
      01000008H   CODE     ---       Timer0_ISR_Handler
      0100001AH   CODE     ---       Timer1_ISR_Handler
      01000060H   CODE     ---       Timer2_ISR_Handler
      01000061H   CODE     ---       Timer3_ISR_Handler
      01000062H   CODE     ---       Timer4_ISR_Handler
      01000838H   CODE     ---       Timer_config
*SFR* 0000008AH   DATA     BYTE      TL0
*SFR* 0000008BH   DATA     BYTE      TL1
*SFR* 000000D7H   DATA     BYTE      TL2
*SFR* 000000D5H   DATA     BYTE      TL3
*SFR* 000000D3H   DATA     BYTE      TL4
*SFR* 00000089H   DATA     BYTE      TMOD
*SFR* 00000088H.4 DATA     BIT       TR0
*SFR* 00000088H.6 DATA     BIT       TR1
*SFR* 000000B0H.1 DATA     BIT       TXD
*SFR* 00000090H.1 DATA     BIT       TXD2
      0100000EH   CODE     ---       Wait
*SFR* 000000C1H   DATA     BYTE      WDT_CONTR
*SFR* 000000ABH   DATA     BYTE      WKTCH
*SFR* 000000AAH   DATA     BYTE      WKTCL
*SFR* 000000B0H.6 DATA     BIT       WR
      010006F5H   CODE     ---       WriteRTC



SYMBOL TABLE OF MODULE:  .\list\IIC_RTC (MAIN)

      VALUE       REP       CLASS    TYPE      SYMBOL NAME
      ====================================================
      ---         MODULE    ---      ---       MAIN
      0000001BH   PUBLIC    DATA     BYTE      display_index
      00000019H   PUBLIC    DATA     WORD      msecond
      00000018H   PUBLIC    DATA     BYTE      KeyHoldCnt
      00000017H   PUBLIC    DATA     BYTE      IO_KeyState1
      00000016H   PUBLIC    DATA     BYTE      IO_KeyHoldCnt
      00000015H   PUBLIC    DATA     BYTE      hour
      00000020H.0 PUBLIC    BIT      BIT       B_1ms
      00000014H   PUBLIC    DATA     BYTE      IO_KeyState
      00000013H   PUBLIC    DATA     BYTE      KeyCode
      00000012H   PUBLIC    DATA     BYTE      minute
      0000000AH   PUBLIC    DATA     ---       LED8
      00000009H   PUBLIC    DATA     BYTE      cnt50ms
      00000008H   PUBLIC    DATA     BYTE      second
      01000922H   PUBLIC    CONST    ---       T_KeyTable
      0100091AH   PUBLIC    CONST    ---       T_COM
      010008EFH   PUBLIC    CONST    ---       t_display
      010007D6H   PUBLIC    CODE     ---       DisplayScan
      01000610H   PUBLIC    CODE     ---       IO_KeyScan
LX51 LINKER/LOCATER V4.66.93.0                                                        06/10/2021  10:13:51  PAGE 11


      01000003H   PUBLIC    CODE     ---       IO_KeyDelay
      010006F5H   PUBLIC    CODE     ---       WriteRTC
      0100001EH   PUBLIC    CODE     ---       ReadRTC
      0100078FH   PUBLIC    CODE     ---       DisplayRTC
      01000329H   PUBLIC    CODE     ---       main
      01000859H   PUBLIC    CODE     ---       I2C_config
      01000838H   PUBLIC    CODE     ---       Timer_config
      010000A6H   PUBLIC    CODE     ---       GPIO_config
      000000E0H.7 SFRSYM    DATA     BIT       ACC7
      000000D8H.2 SFRSYM    DATA     BIT       CCF2
      00000093H   SFRSYM    DATA     BYTE      P0M1
      00000092H   SFRSYM    DATA     BYTE      P1M0
      000000D8H.3 SFRSYM    DATA     BIT       CCF3
      00000096H   SFRSYM    DATA     BYTE      P2M0
      00000091H   SFRSYM    DATA     BYTE      P1M1
      00000080H   SFRSYM    DATA     BYTE      P0
      000000B2H   SFRSYM    DATA     BYTE      P3M0
      00000095H   SFRSYM    DATA     BYTE      P2M1
      00000090H   SFRSYM    DATA     BYTE      P1
      000000B4H   SFRSYM    DATA     BYTE      P4M0
      000000B1H   SFRSYM    DATA     BYTE      P3M1
      000000A0H   SFRSYM    DATA     BYTE      P2
      000000CAH   SFRSYM    DATA     BYTE      P5M0
      000000B3H   SFRSYM    DATA     BYTE      P4M1
      000000B0H   SFRSYM    DATA     BYTE      P3
      000000ABH   SFRSYM    DATA     BYTE      WKTCH
      000000B0H.4 SFRSYM    DATA     BIT       T0
      000000D0H.6 SFRSYM    DATA     BIT       AC
      000000CCH   SFRSYM    DATA     BYTE      P6M0
      000000C9H   SFRSYM    DATA     BYTE      P5M1
      000000C0H   SFRSYM    DATA     BYTE      P4
      000000B0H.5 SFRSYM    DATA     BIT       CLKOUT0
      000000B0H.5 SFRSYM    DATA     BIT       T1
      000000E2H   SFRSYM    DATA     BYTE      P7M0
      000000CBH   SFRSYM    DATA     BYTE      P6M1
      000000C8H   SFRSYM    DATA     BYTE      P5
      000000A8H.7 SFRSYM    DATA     BIT       EA
      000000B0H.4 SFRSYM    DATA     BIT       CLKOUT1
      000000E8H   SFRSYM    DATA     BYTE      P6
      000000E1H   SFRSYM    DATA     BYTE      P7M1
      00000090H.1 SFRSYM    DATA     BIT       CCP0
      000000F8H   SFRSYM    DATA     BYTE      P7
      000000AAH   SFRSYM    DATA     BYTE      WKTCL
      00000090H.0 SFRSYM    DATA     BIT       CCP1
      000000CEH   SFRSYM    DATA     BYTE      SPCTL
      000000B0H.7 SFRSYM    DATA     BIT       CCP2
      000000D8H.7 SFRSYM    DATA     BIT       CF
      000000F9H   SFRSYM    DATA     BYTE      CH
      000000A2H   SFRSYM    DATA     BYTE      P_SW1
      000000BAH   SFRSYM    DATA     BYTE      P_SW2
      000000A8H.5 SFRSYM    DATA     BIT       EADC
      000000E5H   SFRSYM    DATA     BYTE      DPH1
      000000A8H   SFRSYM    DATA     BYTE      IE
      000000E9H   SFRSYM    DATA     BYTE      CL
      000000C5H   SFRSYM    DATA     BYTE      IAP_CMD
      000000FAH   SFRSYM    DATA     BYTE      CCAP0H
      000000FBH   SFRSYM    DATA     BYTE      CCAP1H
      000000E4H   SFRSYM    DATA     BYTE      DPL1
      000000FCH   SFRSYM    DATA     BYTE      CCAP2H
      000000BDH   SFRSYM    DATA     BYTE      ADC_RES
      000000B6H   SFRSYM    DATA     BYTE      IP2H
      000000EEH   SFRSYM    DATA     BYTE      IP3H
      000000EAH   SFRSYM    DATA     BYTE      CCAP0L
      000000D8H.6 SFRSYM    DATA     BIT       CR
      000000AEH   SFRSYM    DATA     BYTE      TA
LX51 LINKER/LOCATER V4.66.93.0                                                        06/10/2021  10:13:51  PAGE 12


      000000B0H.7 SFRSYM    DATA     BIT       RD
      000000EBH   SFRSYM    DATA     BYTE      CCAP1L
      000000DAH   SFRSYM    DATA     BYTE      CCAPM0
      000000ECH   SFRSYM    DATA     BYTE      CCAP2L
      000000DBH   SFRSYM    DATA     BYTE      CCAPM1
      000000A8H.4 SFRSYM    DATA     BIT       ES
      000000DCH   SFRSYM    DATA     BYTE      CCAPM2
      000000B8H.5 SFRSYM    DATA     BIT       PADC
      000000B8H   SFRSYM    DATA     BYTE      IP
      000000DEH   SFRSYM    DATA     BYTE      ADCCFG
      00000098H.0 SFRSYM    DATA     BIT       RI
      000000B0H.2 SFRSYM    DATA     BIT       INT0
      000000D0H.7 SFRSYM    DATA     BIT       CY
      00000098H.1 SFRSYM    DATA     BIT       TI
      000000B0H.3 SFRSYM    DATA     BIT       INT1
      000000B0H.6 SFRSYM    DATA     BIT       INT2
      000000B0H.7 SFRSYM    DATA     BIT       INT3
      000000B0H.0 SFRSYM    DATA     BIT       INT4
      000000C3H   SFRSYM    DATA     BYTE      IAP_ADDRH
      00000090H.0 SFRSYM    DATA     BIT       RXD2
      00000090H.1 SFRSYM    DATA     BIT       TXD2
      000000B8H.4 SFRSYM    DATA     BIT       PS
      00000081H   SFRSYM    DATA     BYTE      SP
      000000D9H   SFRSYM    DATA     BYTE      CMOD
      000000D8H   SFRSYM    DATA     BYTE      CCON
      000000C4H   SFRSYM    DATA     BYTE      IAP_ADDRL
      000000D0H.2 SFRSYM    DATA     BIT       OV
      000000B8H.7 SFRSYM    DATA     BIT       PPCA
      0000009EH   SFRSYM    DATA     BYTE      LIRTRIM
      000000E6H   SFRSYM    DATA     BYTE      CMPCR1
      000000B0H.6 SFRSYM    DATA     BIT       WR
      000000E7H   SFRSYM    DATA     BYTE      CMPCR2
      000000A8H.6 SFRSYM    DATA     BIT       ELVD
      00000080H.0 SFRSYM    DATA     BIT       P00
      00000090H.0 SFRSYM    DATA     BIT       P10
      00000080H.1 SFRSYM    DATA     BIT       P01
      000000BCH   SFRSYM    DATA     BYTE      ADC_CONTR
      00000099H   SFRSYM    DATA     BYTE      SBUF
      00000087H   SFRSYM    DATA     BYTE      PCON
      000000A0H.0 SFRSYM    DATA     BIT       P20
      00000090H.1 SFRSYM    DATA     BIT       P11
      00000080H.2 SFRSYM    DATA     BIT       P02
      000000B0H.0 SFRSYM    DATA     BIT       P30
      000000A0H.1 SFRSYM    DATA     BIT       P21
      00000090H.2 SFRSYM    DATA     BIT       P12
      00000080H.3 SFRSYM    DATA     BIT       P03
      000000F5H   SFRSYM    DATA     BYTE      IAP_TPS
      000000C0H.0 SFRSYM    DATA     BIT       P40
      000000B0H.1 SFRSYM    DATA     BIT       P31
      000000A0H.2 SFRSYM    DATA     BIT       P22
      00000090H.3 SFRSYM    DATA     BIT       P13
      00000080H.4 SFRSYM    DATA     BIT       P04
      00000098H   SFRSYM    DATA     BYTE      SCON
      000000C8H.0 SFRSYM    DATA     BIT       P50
      000000C0H.1 SFRSYM    DATA     BIT       P41
      000000B0H.2 SFRSYM    DATA     BIT       P32
      000000A0H.3 SFRSYM    DATA     BIT       P23
      00000090H.4 SFRSYM    DATA     BIT       P14
      00000080H.5 SFRSYM    DATA     BIT       P05
      00000089H   SFRSYM    DATA     BYTE      TMOD
      00000088H   SFRSYM    DATA     BYTE      TCON
      000000E8H.0 SFRSYM    DATA     BIT       P60
      000000C8H.1 SFRSYM    DATA     BIT       P51
      000000C0H.2 SFRSYM    DATA     BIT       P42
      000000B0H.3 SFRSYM    DATA     BIT       P33
LX51 LINKER/LOCATER V4.66.93.0                                                        06/10/2021  10:13:51  PAGE 13


      000000A0H.4 SFRSYM    DATA     BIT       P24
      00000090H.5 SFRSYM    DATA     BIT       P15
      00000080H.6 SFRSYM    DATA     BIT       P06
      000000F8H.0 SFRSYM    DATA     BIT       P70
      000000E8H.1 SFRSYM    DATA     BIT       P61
      000000C8H.2 SFRSYM    DATA     BIT       P52
      000000C0H.3 SFRSYM    DATA     BIT       P43
      000000B0H.4 SFRSYM    DATA     BIT       P34
      000000A0H.5 SFRSYM    DATA     BIT       P25
      00000090H.6 SFRSYM    DATA     BIT       P16
      00000080H.7 SFRSYM    DATA     BIT       P07
      000000B8H.6 SFRSYM    DATA     BIT       PLVD
      000000F8H.1 SFRSYM    DATA     BIT       P71
      000000E8H.2 SFRSYM    DATA     BIT       P62
      000000C8H.3 SFRSYM    DATA     BIT       P53
      000000C0H.4 SFRSYM    DATA     BIT       P44
      000000B0H.5 SFRSYM    DATA     BIT       P35
      000000A0H.6 SFRSYM    DATA     BIT       P26
      00000090H.7 SFRSYM    DATA     BIT       P17
      000000F8H.2 SFRSYM    DATA     BIT       P72
      000000E8H.3 SFRSYM    DATA     BIT       P63
      000000C8H.4 SFRSYM    DATA     BIT       P54
      000000C0H.5 SFRSYM    DATA     BIT       P45
      000000B0H.6 SFRSYM    DATA     BIT       P36
      000000A0H.7 SFRSYM    DATA     BIT       P27
      000000F8H.3 SFRSYM    DATA     BIT       P73
      000000E8H.4 SFRSYM    DATA     BIT       P64
      000000C8H.5 SFRSYM    DATA     BIT       P55
      000000C0H.6 SFRSYM    DATA     BIT       P46
      000000B0H.7 SFRSYM    DATA     BIT       P37
      000000F8H.4 SFRSYM    DATA     BIT       P74
      000000E8H.5 SFRSYM    DATA     BIT       P65
      000000C8H.6 SFRSYM    DATA     BIT       P56
      000000C0H.7 SFRSYM    DATA     BIT       P47
      000000F8H.5 SFRSYM    DATA     BIT       P75
      000000E8H.6 SFRSYM    DATA     BIT       P66
      000000C8H.7 SFRSYM    DATA     BIT       P57
      000000F8H.6 SFRSYM    DATA     BIT       P76
      000000E8H.7 SFRSYM    DATA     BIT       P67
      000000F8H.7 SFRSYM    DATA     BIT       P77
      00000088H.1 SFRSYM    DATA     BIT       IE0
      000000A1H   SFRSYM    DATA     BYTE      BUS_SPEED
      00000088H.3 SFRSYM    DATA     BIT       IE1
      000000AFH   SFRSYM    DATA     BYTE      IE2
      000000F0H   SFRSYM    DATA     BYTE      B
      0000008EH   SFRSYM    DATA     BYTE      AUXR
      000000C7H   SFRSYM    DATA     BYTE      IAP_CONTR
      000000F6H   SFRSYM    DATA     BYTE      PWMCFG
      000000E0H   SFRSYM    DATA     BYTE      ACC
      000000A8H.1 SFRSYM    DATA     BIT       ET0
      000000A8H.3 SFRSYM    DATA     BIT       ET1
      00000088H.5 SFRSYM    DATA     BIT       TF0
      00000088H.7 SFRSYM    DATA     BIT       TF1
      000000FFH   SFRSYM    DATA     BYTE      RSTCFG
      000000B5H   SFRSYM    DATA     BYTE      IP2
      00000098H.2 SFRSYM    DATA     BIT       RB8
      000000DFH   SFRSYM    DATA     BYTE      IP3
      0000008CH   SFRSYM    DATA     BYTE      TH0
      000000A8H.0 SFRSYM    DATA     BIT       EX0
      00000088H.0 SFRSYM    DATA     BIT       IT0
      0000008DH   SFRSYM    DATA     BYTE      TH1
      000000A8H.2 SFRSYM    DATA     BIT       EX1
      00000098H.3 SFRSYM    DATA     BIT       TB8
      00000088H.2 SFRSYM    DATA     BIT       IT1
      000000D6H   SFRSYM    DATA     BYTE      TH2
LX51 LINKER/LOCATER V4.66.93.0                                                        06/10/2021  10:13:51  PAGE 14


      000000D6H   SFRSYM    DATA     BYTE      T2H
      000000D0H.0 SFRSYM    DATA     BIT       P
      000000D4H   SFRSYM    DATA     BYTE      TH3
      000000D4H   SFRSYM    DATA     BYTE      T3H
      00000098H.7 SFRSYM    DATA     BIT       SM0
      000000D2H   SFRSYM    DATA     BYTE      TH4
      000000D2H   SFRSYM    DATA     BYTE      T4H
      0000008AH   SFRSYM    DATA     BYTE      TL0
      00000098H.6 SFRSYM    DATA     BIT       SM1
      0000008BH   SFRSYM    DATA     BYTE      TL1
      00000098H.5 SFRSYM    DATA     BIT       SM2
      000000D7H   SFRSYM    DATA     BYTE      TL2
      000000D7H   SFRSYM    DATA     BYTE      T2L
      000000D5H   SFRSYM    DATA     BYTE      TL3
      000000D5H   SFRSYM    DATA     BYTE      T3L
      000000D3H   SFRSYM    DATA     BYTE      TL4
      000000D3H   SFRSYM    DATA     BYTE      T4L
      000000B8H.1 SFRSYM    DATA     BIT       PT0
      000000D0H.3 SFRSYM    DATA     BIT       RS0
      000000B8H.3 SFRSYM    DATA     BIT       PT1
      00000088H.4 SFRSYM    DATA     BIT       TR0
      000000D0H.4 SFRSYM    DATA     BIT       RS1
      000000C2H   SFRSYM    DATA     BYTE      IAP_DATA
      00000088H.6 SFRSYM    DATA     BIT       TR1
      000000C1H   SFRSYM    DATA     BYTE      WDT_CONTR
      000000B8H.0 SFRSYM    DATA     BIT       PX0
      000000B8H.2 SFRSYM    DATA     BIT       PX1
      0000009FH   SFRSYM    DATA     BYTE      IRTRIM
      000000F2H   SFRSYM    DATA     BYTE      PCA_PWM0
      000000F3H   SFRSYM    DATA     BYTE      PCA_PWM1
      000000F4H   SFRSYM    DATA     BYTE      PCA_PWM2
      00000083H   SFRSYM    DATA     BYTE      DPH
      000000D1H   SFRSYM    DATA     BYTE      T4T3M
      000000BEH   SFRSYM    DATA     BYTE      ADC_RESL
      00000082H   SFRSYM    DATA     BYTE      DPL
      000000CDH   SFRSYM    DATA     BYTE      SPSTAT
      000000B7H   SFRSYM    DATA     BYTE      IPH
      000000F1H   SFRSYM    DATA     BYTE      PWMSET
      0000009BH   SFRSYM    DATA     BYTE      S2BUF
      000000ADH   SFRSYM    DATA     BYTE      S3BUF
      00000098H.4 SFRSYM    DATA     BIT       REN
      00000085H   SFRSYM    DATA     BYTE      S4BUF
      0000009AH   SFRSYM    DATA     BYTE      S2CON
      000000E3H   SFRSYM    DATA     BYTE      DPS
      000000ACH   SFRSYM    DATA     BYTE      S3CON
      00000084H   SFRSYM    DATA     BYTE      S4CON
      000000EFH   SFRSYM    DATA     BYTE      AUXINTIF
      000000B9H   SFRSYM    DATA     BYTE      SADEN
      000000B0H.0 SFRSYM    DATA     BIT       RXD
      000000A9H   SFRSYM    DATA     BYTE      SADDR
      000000B0H.1 SFRSYM    DATA     BIT       TXD
      000000F0H.0 SFRSYM    DATA     BIT       B0
      000000F0H.1 SFRSYM    DATA     BIT       B1
      000000C6H   SFRSYM    DATA     BYTE      IAP_TRIG
      000000A2H   SFRSYM    DATA     BYTE      AUXR1
      000000F0H.2 SFRSYM    DATA     BIT       B2
      000000F0H.3 SFRSYM    DATA     BIT       B3
      000000F0H.4 SFRSYM    DATA     BIT       B4
      000000D0H.5 SFRSYM    DATA     BIT       F0
      0000009DH   SFRSYM    DATA     BYTE      IRCBAND
      000000F0H.5 SFRSYM    DATA     BIT       B5
      000000D0H.1 SFRSYM    DATA     BIT       F1
      0000008FH   SFRSYM    DATA     BYTE      INT_CLKO
      000000F0H.6 SFRSYM    DATA     BIT       B6
      000000E0H.0 SFRSYM    DATA     BIT       ACC0
LX51 LINKER/LOCATER V4.66.93.0                                                        06/10/2021  10:13:51  PAGE 15


      000000F0H.7 SFRSYM    DATA     BIT       B7
      000000E0H.1 SFRSYM    DATA     BIT       ACC1
      000000E0H.2 SFRSYM    DATA     BIT       ACC2
      000000E0H.3 SFRSYM    DATA     BIT       ACC3
      000000D0H   SFRSYM    DATA     BYTE      PSW
      000000E0H.4 SFRSYM    DATA     BIT       ACC4
      000000E0H.5 SFRSYM    DATA     BIT       ACC5
      000000D8H.0 SFRSYM    DATA     BIT       CCF0
      000000E0H.6 SFRSYM    DATA     BIT       ACC6
      000000D8H.1 SFRSYM    DATA     BIT       CCF1
      000000CFH   SFRSYM    DATA     BYTE      SPDAT
      00000094H   SFRSYM    DATA     BYTE      P0M0

      010000A6H   BLOCK     CODE     ---       LVL=0
      010000A6H   LINE      CODE     ---       #86
      010000A6H   LINE      CODE     ---       #87
      010000A6H   LINE      CODE     ---       #88
      010000ACH   LINE      CODE     ---       #89
      010000B2H   LINE      CODE     ---       #90
      010000B8H   LINE      CODE     ---       #91
      010000BEH   LINE      CODE     ---       #92
      ---         BLOCKEND  ---      ---       LVL=0

      01000838H   BLOCK     CODE     ---       LVL=0
      01000838H   BLOCK     CODE     NEAR LAB  LVL=1
      00000021H   SYMBOL    DATA     ---       TIM_InitStructure
      ---         BLOCKEND  ---      ---       LVL=1
      01000838H   LINE      CODE     ---       #95
      01000838H   LINE      CODE     ---       #96
      01000838H   LINE      CODE     ---       #98
      0100083BH   LINE      CODE     ---       #99
      0100083EH   LINE      CODE     ---       #100
      01000840H   LINE      CODE     ---       #101
      01000846H   LINE      CODE     ---       #102
      01000849H   LINE      CODE     ---       #103
      01000852H   LINE      CODE     ---       #104
      ---         BLOCKEND  ---      ---       LVL=0

      01000859H   BLOCK     CODE     ---       LVL=0
      01000859H   BLOCK     CODE     NEAR LAB  LVL=1
      00000021H   SYMBOL    DATA     ---       I2C_InitStructure
      ---         BLOCKEND  ---      ---       LVL=1
      01000859H   LINE      CODE     ---       #108
      01000859H   LINE      CODE     ---       #109
      01000859H   LINE      CODE     ---       #111
      0100085CH   LINE      CODE     ---       #112
      0100085FH   LINE      CODE     ---       #113
      01000862H   LINE      CODE     ---       #114
      01000865H   LINE      CODE     ---       #115
      0100086DH   LINE      CODE     ---       #116
      01000875H   LINE      CODE     ---       #118
      01000878H   LINE      CODE     ---       #119
      ---         BLOCKEND  ---      ---       LVL=0

      01000329H   BLOCK     CODE     ---       LVL=0
      01000329H   BLOCK     CODE     NEAR LAB  LVL=1
      00000007H   SYMBOL    DATA     BYTE      i
      ---         BLOCKEND  ---      ---       LVL=1
      01000329H   LINE      CODE     ---       #122
      01000329H   LINE      CODE     ---       #123
      01000329H   LINE      CODE     ---       #126
      0100032CH   LINE      CODE     ---       #127
      0100032FH   LINE      CODE     ---       #128
      01000332H   LINE      CODE     ---       #129
      01000334H   LINE      CODE     ---       #131
LX51 LINKER/LOCATER V4.66.93.0                                                        06/10/2021  10:13:51  PAGE 16


      01000337H   LINE      CODE     ---       #133
      0100034BH   LINE      CODE     ---       #135
      0100034EH   LINE      CODE     ---       #136
      01000350H   LINE      CODE     ---       #137
      0100035DH   LINE      CODE     ---       #138
      0100036AH   LINE      CODE     ---       #139
      01000377H   LINE      CODE     ---       #140
      0100037AH   LINE      CODE     ---       #141
      0100037AH   LINE      CODE     ---       #142
      0100037DH   LINE      CODE     ---       #143
      0100037FH   LINE      CODE     ---       #144
      01000382H   LINE      CODE     ---       #145
      01000385H   LINE      CODE     ---       #146
      01000385H   LINE      CODE     ---       #148
      01000388H   LINE      CODE     ---       #149
      0100038BH   LINE      CODE     ---       #150
      0100038EH   LINE      CODE     ---       #152
      01000391H   LINE      CODE     ---       #153
      01000393H   LINE      CODE     ---       #155
      01000395H   LINE      CODE     ---       #156
      01000397H   LINE      CODE     ---       #157
      01000399H   LINE      CODE     ---       #158
      0100039BH   LINE      CODE     ---       #160
      0100039BH   LINE      CODE     ---       #161
      0100039BH   LINE      CODE     ---       #162
      0100039EH   LINE      CODE     ---       #163
      0100039EH   LINE      CODE     ---       #164
      010003A0H   LINE      CODE     ---       #165
      010003A3H   LINE      CODE     ---       #166
      010003B4H   LINE      CODE     ---       #167
      010003B4H   LINE      CODE     ---       #168
      010003B9H   LINE      CODE     ---       #169
      010003BCH   LINE      CODE     ---       #170
      010003BFH   LINE      CODE     ---       #171
      010003BFH   LINE      CODE     ---       #173
      010003CCH   LINE      CODE     ---       #174
      010003CCH   LINE      CODE     ---       #175
      010003CFH   LINE      CODE     ---       #176
      010003D2H   LINE      CODE     ---       #177
      010003D2H   LINE      CODE     ---       #179
      010003D7H   LINE      CODE     ---       #180
      010003D7H   LINE      CODE     ---       #181
      010003DBH   LINE      CODE     ---       #182
      010003DBH   LINE      CODE     ---       #183
      010003EBH   LINE      CODE     ---       #184
      010003EEH   LINE      CODE     ---       #185
      010003F1H   LINE      CODE     ---       #186
      010003F1H   LINE      CODE     ---       #187
      010003F7H   LINE      CODE     ---       #188
      010003F7H   LINE      CODE     ---       #189
      01000407H   LINE      CODE     ---       #190
      0100040AH   LINE      CODE     ---       #191
      0100040DH   LINE      CODE     ---       #192
      0100040DH   LINE      CODE     ---       #193
      01000413H   LINE      CODE     ---       #194
      01000413H   LINE      CODE     ---       #195
      01000415H   LINE      CODE     ---       #196
      01000425H   LINE      CODE     ---       #197
      01000428H   LINE      CODE     ---       #198
      0100042BH   LINE      CODE     ---       #199
      0100042BH   LINE      CODE     ---       #200
      01000431H   LINE      CODE     ---       #201
      01000431H   LINE      CODE     ---       #202
      01000433H   LINE      CODE     ---       #203
      01000443H   LINE      CODE     ---       #204
LX51 LINKER/LOCATER V4.66.93.0                                                        06/10/2021  10:13:51  PAGE 17


      01000446H   LINE      CODE     ---       #205
      01000449H   LINE      CODE     ---       #206
      01000449H   LINE      CODE     ---       #208
      0100044CH   LINE      CODE     ---       #209
      0100044CH   LINE      CODE     ---       #210
      0100044CH   LINE      CODE     ---       #211
      ---         BLOCKEND  ---      ---       LVL=0

      0100078FH   BLOCK     CODE     ---       LVL=0
      0100078FH   LINE      CODE     ---       #215
      0100078FH   LINE      CODE     ---       #216
      0100078FH   LINE      CODE     ---       #217
      010007A4H   LINE      CODE     ---       #218
      010007A7H   LINE      CODE     ---       #219
      010007B0H   LINE      CODE     ---       #220
      010007B3H   LINE      CODE     ---       #221
      010007BBH   LINE      CODE     ---       #222
      010007C4H   LINE      CODE     ---       #223
      010007CCH   LINE      CODE     ---       #224
      010007D5H   LINE      CODE     ---       #225
      ---         BLOCKEND  ---      ---       LVL=0

      0100001EH   BLOCK     CODE     ---       LVL=0
      0100001EH   BLOCK     CODE     NEAR LAB  LVL=1
      00000021H   SYMBOL    DATA     ---       tmp
      ---         BLOCKEND  ---      ---       LVL=1
      0100001EH   LINE      CODE     ---       #228
      0100001EH   LINE      CODE     ---       #229
      0100001EH   LINE      CODE     ---       #232
      0100002CH   LINE      CODE     ---       #233
      0100003DH   LINE      CODE     ---       #234
      0100004EH   LINE      CODE     ---       #235
      0100005FH   LINE      CODE     ---       #236
      ---         BLOCKEND  ---      ---       LVL=0

      010006F5H   BLOCK     CODE     ---       LVL=0
      010006F5H   BLOCK     CODE     NEAR LAB  LVL=1
      00000021H   SYMBOL    DATA     ---       tmp
      ---         BLOCKEND  ---      ---       LVL=1
      010006F5H   LINE      CODE     ---       #239
      010006F5H   LINE      CODE     ---       #240
      010006F5H   LINE      CODE     ---       #243
      0100070AH   LINE      CODE     ---       #244
      0100071FH   LINE      CODE     ---       #245
      01000734H   LINE      CODE     ---       #246
      ---         BLOCKEND  ---      ---       LVL=0

      01000003H   BLOCK     CODE     ---       LVL=0
      01000003H   BLOCK     CODE     NEAR LAB  LVL=1
      00000007H   SYMBOL    DATA     BYTE      i
      ---         BLOCKEND  ---      ---       LVL=1
      01000003H   LINE      CODE     ---       #270
      01000003H   LINE      CODE     ---       #271
      01000003H   LINE      CODE     ---       #273
      01000005H   LINE      CODE     ---       #274
      01000007H   LINE      CODE     ---       #275
      ---         BLOCKEND  ---      ---       LVL=0

      01000610H   BLOCK     CODE     ---       LVL=0
      01000610H   BLOCK     CODE     NEAR LAB  LVL=1
      00000006H   SYMBOL    DATA     BYTE      j
      ---         BLOCKEND  ---      ---       LVL=1
      01000610H   LINE      CODE     ---       #277
      01000610H   LINE      CODE     ---       #278
      01000610H   LINE      CODE     ---       #281
LX51 LINKER/LOCATER V4.66.93.0                                                        06/10/2021  10:13:51  PAGE 18


      01000612H   LINE      CODE     ---       #283
      01000615H   LINE      CODE     ---       #284
      01000618H   LINE      CODE     ---       #285
      0100061EH   LINE      CODE     ---       #287
      01000621H   LINE      CODE     ---       #288
      01000624H   LINE      CODE     ---       #289
      0100062AH   LINE      CODE     ---       #290
      0100062DH   LINE      CODE     ---       #292
      01000632H   LINE      CODE     ---       #293
      01000632H   LINE      CODE     ---       #294
      01000634H   LINE      CODE     ---       #295
      01000637H   LINE      CODE     ---       #296
      0100063BH   LINE      CODE     ---       #297
      0100063BH   LINE      CODE     ---       #298
      0100063DH   LINE      CODE     ---       #299
      01000644H   LINE      CODE     ---       #300
      01000648H   LINE      CODE     ---       #301
      01000648H   LINE      CODE     ---       #302
      01000655H   LINE      CODE     ---       #303
      01000655H   LINE      CODE     ---       #304
      01000658H   LINE      CODE     ---       #305
      0100065AH   LINE      CODE     ---       #306
      0100065AH   LINE      CODE     ---       #307
      0100065AH   LINE      CODE     ---       #308
      0100065DH   LINE      CODE     ---       #309
      0100065DH   LINE      CODE     ---       #310
      01000667H   LINE      CODE     ---       #311
      01000671H   LINE      CODE     ---       #312
      0100067DH   LINE      CODE     ---       #313
      0100067DH   LINE      CODE     ---       #314
      0100067FH   LINE      CODE     ---       #315
      01000682H   LINE      CODE     ---       #316
      01000682H   LINE      CODE     ---       #317
      01000685H   LINE      CODE     ---       #318
      ---         BLOCKEND  ---      ---       LVL=0

      010007D6H   BLOCK     CODE     ---       LVL=0
      010007D6H   LINE      CODE     ---       #322
      010007D6H   LINE      CODE     ---       #323
      010007D6H   LINE      CODE     ---       #324
      010007EFH   LINE      CODE     ---       #325
      010007FCH   LINE      CODE     ---       #326
      0100080CH   LINE      CODE     ---       #327
      ---         BLOCKEND  ---      ---       LVL=0

      ---         MODULE    ---      ---       STC8A_GPIO
      000000E0H.7 SFRSYM    DATA     BIT       ACC7
      000000D8H.2 SFRSYM    DATA     BIT       CCF2
      00000093H   SFRSYM    DATA     BYTE      P0M1
      00000092H   SFRSYM    DATA     BYTE      P1M0
      000000D8H.3 SFRSYM    DATA     BIT       CCF3
      00000096H   SFRSYM    DATA     BYTE      P2M0
      00000091H   SFRSYM    DATA     BYTE      P1M1
      00000080H   SFRSYM    DATA     BYTE      P0
      000000B2H   SFRSYM    DATA     BYTE      P3M0
      00000095H   SFRSYM    DATA     BYTE      P2M1
      00000090H   SFRSYM    DATA     BYTE      P1
      000000B4H   SFRSYM    DATA     BYTE      P4M0
      000000B1H   SFRSYM    DATA     BYTE      P3M1
      000000A0H   SFRSYM    DATA     BYTE      P2
      000000CAH   SFRSYM    DATA     BYTE      P5M0
      000000B3H   SFRSYM    DATA     BYTE      P4M1
      000000B0H   SFRSYM    DATA     BYTE      P3
      000000ABH   SFRSYM    DATA     BYTE      WKTCH
      000000B0H.4 SFRSYM    DATA     BIT       T0
LX51 LINKER/LOCATER V4.66.93.0                                                        06/10/2021  10:13:51  PAGE 19


      000000D0H.6 SFRSYM    DATA     BIT       AC
      000000CCH   SFRSYM    DATA     BYTE      P6M0
      000000C9H   SFRSYM    DATA     BYTE      P5M1
      000000C0H   SFRSYM    DATA     BYTE      P4
      000000B0H.5 SFRSYM    DATA     BIT       CLKOUT0
      000000B0H.5 SFRSYM    DATA     BIT       T1
      000000E2H   SFRSYM    DATA     BYTE      P7M0
      000000CBH   SFRSYM    DATA     BYTE      P6M1
      000000C8H   SFRSYM    DATA     BYTE      P5
      000000A8H.7 SFRSYM    DATA     BIT       EA
      000000B0H.4 SFRSYM    DATA     BIT       CLKOUT1
      000000E8H   SFRSYM    DATA     BYTE      P6
      000000E1H   SFRSYM    DATA     BYTE      P7M1
      00000090H.1 SFRSYM    DATA     BIT       CCP0
      000000F8H   SFRSYM    DATA     BYTE      P7
      000000AAH   SFRSYM    DATA     BYTE      WKTCL
      00000090H.0 SFRSYM    DATA     BIT       CCP1
      000000CEH   SFRSYM    DATA     BYTE      SPCTL
      000000B0H.7 SFRSYM    DATA     BIT       CCP2
      000000D8H.7 SFRSYM    DATA     BIT       CF
      000000F9H   SFRSYM    DATA     BYTE      CH
      000000A2H   SFRSYM    DATA     BYTE      P_SW1
      000000BAH   SFRSYM    DATA     BYTE      P_SW2
      000000A8H.5 SFRSYM    DATA     BIT       EADC
      000000E5H   SFRSYM    DATA     BYTE      DPH1
      000000A8H   SFRSYM    DATA     BYTE      IE
      000000E9H   SFRSYM    DATA     BYTE      CL
      000000C5H   SFRSYM    DATA     BYTE      IAP_CMD
      000000FAH   SFRSYM    DATA     BYTE      CCAP0H
      000000FBH   SFRSYM    DATA     BYTE      CCAP1H
      000000E4H   SFRSYM    DATA     BYTE      DPL1
      000000FCH   SFRSYM    DATA     BYTE      CCAP2H
      000000BDH   SFRSYM    DATA     BYTE      ADC_RES
      000000B6H   SFRSYM    DATA     BYTE      IP2H
      000000EEH   SFRSYM    DATA     BYTE      IP3H
      000000EAH   SFRSYM    DATA     BYTE      CCAP0L
      000000D8H.6 SFRSYM    DATA     BIT       CR
      000000AEH   SFRSYM    DATA     BYTE      TA
      000000B0H.7 SFRSYM    DATA     BIT       RD
      000000EBH   SFRSYM    DATA     BYTE      CCAP1L
      000000DAH   SFRSYM    DATA     BYTE      CCAPM0
      000000ECH   SFRSYM    DATA     BYTE      CCAP2L
      000000DBH   SFRSYM    DATA     BYTE      CCAPM1
      000000A8H.4 SFRSYM    DATA     BIT       ES
      000000DCH   SFRSYM    DATA     BYTE      CCAPM2
      000000B8H.5 SFRSYM    DATA     BIT       PADC
      000000B8H   SFRSYM    DATA     BYTE      IP
      000000DEH   SFRSYM    DATA     BYTE      ADCCFG
      00000098H.0 SFRSYM    DATA     BIT       RI
      000000B0H.2 SFRSYM    DATA     BIT       INT0
      000000D0H.7 SFRSYM    DATA     BIT       CY
      00000098H.1 SFRSYM    DATA     BIT       TI
      000000B0H.3 SFRSYM    DATA     BIT       INT1
      000000B0H.6 SFRSYM    DATA     BIT       INT2
      000000B0H.7 SFRSYM    DATA     BIT       INT3
      000000B0H.0 SFRSYM    DATA     BIT       INT4
      000000C3H   SFRSYM    DATA     BYTE      IAP_ADDRH
      00000090H.0 SFRSYM    DATA     BIT       RXD2
      00000090H.1 SFRSYM    DATA     BIT       TXD2
      000000B8H.4 SFRSYM    DATA     BIT       PS
      00000081H   SFRSYM    DATA     BYTE      SP
      000000D9H   SFRSYM    DATA     BYTE      CMOD
      000000D8H   SFRSYM    DATA     BYTE      CCON
      000000C4H   SFRSYM    DATA     BYTE      IAP_ADDRL
      000000D0H.2 SFRSYM    DATA     BIT       OV
LX51 LINKER/LOCATER V4.66.93.0                                                        06/10/2021  10:13:51  PAGE 20


      000000B8H.7 SFRSYM    DATA     BIT       PPCA
      0000009EH   SFRSYM    DATA     BYTE      LIRTRIM
      000000E6H   SFRSYM    DATA     BYTE      CMPCR1
      000000B0H.6 SFRSYM    DATA     BIT       WR
      000000E7H   SFRSYM    DATA     BYTE      CMPCR2
      000000A8H.6 SFRSYM    DATA     BIT       ELVD
      00000080H.0 SFRSYM    DATA     BIT       P00
      00000090H.0 SFRSYM    DATA     BIT       P10
      00000080H.1 SFRSYM    DATA     BIT       P01
      000000BCH   SFRSYM    DATA     BYTE      ADC_CONTR
      00000099H   SFRSYM    DATA     BYTE      SBUF
      00000087H   SFRSYM    DATA     BYTE      PCON
      000000A0H.0 SFRSYM    DATA     BIT       P20
      00000090H.1 SFRSYM    DATA     BIT       P11
      00000080H.2 SFRSYM    DATA     BIT       P02
      000000B0H.0 SFRSYM    DATA     BIT       P30
      000000A0H.1 SFRSYM    DATA     BIT       P21
      00000090H.2 SFRSYM    DATA     BIT       P12
      00000080H.3 SFRSYM    DATA     BIT       P03
      000000F5H   SFRSYM    DATA     BYTE      IAP_TPS
      000000C0H.0 SFRSYM    DATA     BIT       P40
      000000B0H.1 SFRSYM    DATA     BIT       P31
      000000A0H.2 SFRSYM    DATA     BIT       P22
      00000090H.3 SFRSYM    DATA     BIT       P13
      00000080H.4 SFRSYM    DATA     BIT       P04
      00000098H   SFRSYM    DATA     BYTE      SCON
      000000C8H.0 SFRSYM    DATA     BIT       P50
      000000C0H.1 SFRSYM    DATA     BIT       P41
      000000B0H.2 SFRSYM    DATA     BIT       P32
      000000A0H.3 SFRSYM    DATA     BIT       P23
      00000090H.4 SFRSYM    DATA     BIT       P14
      00000080H.5 SFRSYM    DATA     BIT       P05
      00000089H   SFRSYM    DATA     BYTE      TMOD
      00000088H   SFRSYM    DATA     BYTE      TCON
      000000E8H.0 SFRSYM    DATA     BIT       P60
      000000C8H.1 SFRSYM    DATA     BIT       P51
      000000C0H.2 SFRSYM    DATA     BIT       P42
      000000B0H.3 SFRSYM    DATA     BIT       P33
      000000A0H.4 SFRSYM    DATA     BIT       P24
      00000090H.5 SFRSYM    DATA     BIT       P15
      00000080H.6 SFRSYM    DATA     BIT       P06
      000000F8H.0 SFRSYM    DATA     BIT       P70
      000000E8H.1 SFRSYM    DATA     BIT       P61
      000000C8H.2 SFRSYM    DATA     BIT       P52
      000000C0H.3 SFRSYM    DATA     BIT       P43
      000000B0H.4 SFRSYM    DATA     BIT       P34
      000000A0H.5 SFRSYM    DATA     BIT       P25
      00000090H.6 SFRSYM    DATA     BIT       P16
      00000080H.7 SFRSYM    DATA     BIT       P07
      000000B8H.6 SFRSYM    DATA     BIT       PLVD
      000000F8H.1 SFRSYM    DATA     BIT       P71
      000000E8H.2 SFRSYM    DATA     BIT       P62
      000000C8H.3 SFRSYM    DATA     BIT       P53
      000000C0H.4 SFRSYM    DATA     BIT       P44
      000000B0H.5 SFRSYM    DATA     BIT       P35
      000000A0H.6 SFRSYM    DATA     BIT       P26
      00000090H.7 SFRSYM    DATA     BIT       P17
      000000F8H.2 SFRSYM    DATA     BIT       P72
      000000E8H.3 SFRSYM    DATA     BIT       P63
      000000C8H.4 SFRSYM    DATA     BIT       P54
      000000C0H.5 SFRSYM    DATA     BIT       P45
      000000B0H.6 SFRSYM    DATA     BIT       P36
      000000A0H.7 SFRSYM    DATA     BIT       P27
      000000F8H.3 SFRSYM    DATA     BIT       P73
      000000E8H.4 SFRSYM    DATA     BIT       P64
LX51 LINKER/LOCATER V4.66.93.0                                                        06/10/2021  10:13:51  PAGE 21


      000000C8H.5 SFRSYM    DATA     BIT       P55
      000000C0H.6 SFRSYM    DATA     BIT       P46
      000000B0H.7 SFRSYM    DATA     BIT       P37
      000000F8H.4 SFRSYM    DATA     BIT       P74
      000000E8H.5 SFRSYM    DATA     BIT       P65
      000000C8H.6 SFRSYM    DATA     BIT       P56
      000000C0H.7 SFRSYM    DATA     BIT       P47
      000000F8H.5 SFRSYM    DATA     BIT       P75
      000000E8H.6 SFRSYM    DATA     BIT       P66
      000000C8H.7 SFRSYM    DATA     BIT       P57
      000000F8H.6 SFRSYM    DATA     BIT       P76
      000000E8H.7 SFRSYM    DATA     BIT       P67
      000000F8H.7 SFRSYM    DATA     BIT       P77
      00000088H.1 SFRSYM    DATA     BIT       IE0
      000000A1H   SFRSYM    DATA     BYTE      BUS_SPEED
      00000088H.3 SFRSYM    DATA     BIT       IE1
      000000AFH   SFRSYM    DATA     BYTE      IE2
      000000F0H   SFRSYM    DATA     BYTE      B
      0000008EH   SFRSYM    DATA     BYTE      AUXR
      000000C7H   SFRSYM    DATA     BYTE      IAP_CONTR
      000000F6H   SFRSYM    DATA     BYTE      PWMCFG
      000000E0H   SFRSYM    DATA     BYTE      ACC
      000000A8H.1 SFRSYM    DATA     BIT       ET0
      000000A8H.3 SFRSYM    DATA     BIT       ET1
      00000088H.5 SFRSYM    DATA     BIT       TF0
      00000088H.7 SFRSYM    DATA     BIT       TF1
      000000FFH   SFRSYM    DATA     BYTE      RSTCFG
      000000B5H   SFRSYM    DATA     BYTE      IP2
      00000098H.2 SFRSYM    DATA     BIT       RB8
      000000DFH   SFRSYM    DATA     BYTE      IP3
      0000008CH   SFRSYM    DATA     BYTE      TH0
      000000A8H.0 SFRSYM    DATA     BIT       EX0
      00000088H.0 SFRSYM    DATA     BIT       IT0
      0000008DH   SFRSYM    DATA     BYTE      TH1
      000000A8H.2 SFRSYM    DATA     BIT       EX1
      00000098H.3 SFRSYM    DATA     BIT       TB8
      00000088H.2 SFRSYM    DATA     BIT       IT1
      000000D6H   SFRSYM    DATA     BYTE      TH2
      000000D6H   SFRSYM    DATA     BYTE      T2H
      000000D0H.0 SFRSYM    DATA     BIT       P
      000000D4H   SFRSYM    DATA     BYTE      TH3
      000000D4H   SFRSYM    DATA     BYTE      T3H
      00000098H.7 SFRSYM    DATA     BIT       SM0
      000000D2H   SFRSYM    DATA     BYTE      TH4
      000000D2H   SFRSYM    DATA     BYTE      T4H
      0000008AH   SFRSYM    DATA     BYTE      TL0
      00000098H.6 SFRSYM    DATA     BIT       SM1
      0000008BH   SFRSYM    DATA     BYTE      TL1
      00000098H.5 SFRSYM    DATA     BIT       SM2
      000000D7H   SFRSYM    DATA     BYTE      TL2
      000000D7H   SFRSYM    DATA     BYTE      T2L
      000000D5H   SFRSYM    DATA     BYTE      TL3
      000000D5H   SFRSYM    DATA     BYTE      T3L
      000000D3H   SFRSYM    DATA     BYTE      TL4
      000000D3H   SFRSYM    DATA     BYTE      T4L
      000000B8H.1 SFRSYM    DATA     BIT       PT0
      000000D0H.3 SFRSYM    DATA     BIT       RS0
      000000B8H.3 SFRSYM    DATA     BIT       PT1
      00000088H.4 SFRSYM    DATA     BIT       TR0
      000000D0H.4 SFRSYM    DATA     BIT       RS1
      000000C2H   SFRSYM    DATA     BYTE      IAP_DATA
      00000088H.6 SFRSYM    DATA     BIT       TR1
      000000C1H   SFRSYM    DATA     BYTE      WDT_CONTR
      000000B8H.0 SFRSYM    DATA     BIT       PX0
      000000B8H.2 SFRSYM    DATA     BIT       PX1
LX51 LINKER/LOCATER V4.66.93.0                                                        06/10/2021  10:13:51  PAGE 22


      0000009FH   SFRSYM    DATA     BYTE      IRTRIM
      000000F2H   SFRSYM    DATA     BYTE      PCA_PWM0
      000000F3H   SFRSYM    DATA     BYTE      PCA_PWM1
      000000F4H   SFRSYM    DATA     BYTE      PCA_PWM2
      00000083H   SFRSYM    DATA     BYTE      DPH
      000000D1H   SFRSYM    DATA     BYTE      T4T3M
      000000BEH   SFRSYM    DATA     BYTE      ADC_RESL
      00000082H   SFRSYM    DATA     BYTE      DPL
      000000CDH   SFRSYM    DATA     BYTE      SPSTAT
      000000B7H   SFRSYM    DATA     BYTE      IPH
      000000F1H   SFRSYM    DATA     BYTE      PWMSET
      0000009BH   SFRSYM    DATA     BYTE      S2BUF
      000000ADH   SFRSYM    DATA     BYTE      S3BUF
      00000098H.4 SFRSYM    DATA     BIT       REN
      00000085H   SFRSYM    DATA     BYTE      S4BUF
      0000009AH   SFRSYM    DATA     BYTE      S2CON
      000000E3H   SFRSYM    DATA     BYTE      DPS
      000000ACH   SFRSYM    DATA     BYTE      S3CON
      00000084H   SFRSYM    DATA     BYTE      S4CON
      000000EFH   SFRSYM    DATA     BYTE      AUXINTIF
      000000B9H   SFRSYM    DATA     BYTE      SADEN
      000000B0H.0 SFRSYM    DATA     BIT       RXD
      000000A9H   SFRSYM    DATA     BYTE      SADDR
      000000B0H.1 SFRSYM    DATA     BIT       TXD
      000000F0H.0 SFRSYM    DATA     BIT       B0
      000000F0H.1 SFRSYM    DATA     BIT       B1
      000000C6H   SFRSYM    DATA     BYTE      IAP_TRIG
      000000A2H   SFRSYM    DATA     BYTE      AUXR1
      000000F0H.2 SFRSYM    DATA     BIT       B2
      000000F0H.3 SFRSYM    DATA     BIT       B3
      000000F0H.4 SFRSYM    DATA     BIT       B4
      000000D0H.5 SFRSYM    DATA     BIT       F0
      0000009DH   SFRSYM    DATA     BYTE      IRCBAND
      000000F0H.5 SFRSYM    DATA     BIT       B5
      000000D0H.1 SFRSYM    DATA     BIT       F1
      0000008FH   SFRSYM    DATA     BYTE      INT_CLKO
      000000F0H.6 SFRSYM    DATA     BIT       B6
      000000E0H.0 SFRSYM    DATA     BIT       ACC0
      000000F0H.7 SFRSYM    DATA     BIT       B7
      000000E0H.1 SFRSYM    DATA     BIT       ACC1
      000000E0H.2 SFRSYM    DATA     BIT       ACC2
      000000E0H.3 SFRSYM    DATA     BIT       ACC3
      000000D0H   SFRSYM    DATA     BYTE      PSW
      000000E0H.4 SFRSYM    DATA     BIT       ACC4
      000000E0H.5 SFRSYM    DATA     BIT       ACC5
      000000D8H.0 SFRSYM    DATA     BIT       CCF0
      000000E0H.6 SFRSYM    DATA     BIT       ACC6
      000000D8H.1 SFRSYM    DATA     BIT       CCF1
      000000CFH   SFRSYM    DATA     BYTE      SPDAT
      00000094H   SFRSYM    DATA     BYTE      P0M0
      00000007H   SYMBOL    DATA     BYTE      GPIO
      00000001H   SYMBOL    DATA     ---       GPIOx

      ---         MODULE    ---      ---       STC8A_I2C
      02000000H   PUBLIC    XDATA    ---       I2C_Buffer
      00000024H   PUBLIC    DATA     BYTE      ?_I2C_ReadNbyte?BYTE
      01000066H   PUBLIC    CODE     ---       _I2C_ReadNbyte
      00000024H   PUBLIC    DATA     BYTE      ?_I2C_WriteNbyte?BYTE
      0100080DH   PUBLIC    CODE     ---       _I2C_WriteNbyte
      010008E6H   PUBLIC    CODE     ---       Stop
      010008A6H   PUBLIC    CODE     ---       SendNAK
      010008C3H   PUBLIC    CODE     ---       SendACK
      01000897H   PUBLIC    CODE     ---       RecvData
      0100088EH   PUBLIC    CODE     ---       RecvACK
      010008B5H   PUBLIC    CODE     ---       _SendData
LX51 LINKER/LOCATER V4.66.93.0                                                        06/10/2021  10:13:51  PAGE 23


      010008DDH   PUBLIC    CODE     ---       Start
      0100000EH   PUBLIC    CODE     ---       Wait
      0100058DH   PUBLIC    CODE     ---       _I2C_Init
      000000E0H.7 SFRSYM    DATA     BIT       ACC7
      000000D8H.2 SFRSYM    DATA     BIT       CCF2
      00000093H   SFRSYM    DATA     BYTE      P0M1
      00000092H   SFRSYM    DATA     BYTE      P1M0
      000000D8H.3 SFRSYM    DATA     BIT       CCF3
      00000096H   SFRSYM    DATA     BYTE      P2M0
      00000091H   SFRSYM    DATA     BYTE      P1M1
      00000080H   SFRSYM    DATA     BYTE      P0
      000000B2H   SFRSYM    DATA     BYTE      P3M0
      00000095H   SFRSYM    DATA     BYTE      P2M1
      00000090H   SFRSYM    DATA     BYTE      P1
      000000B4H   SFRSYM    DATA     BYTE      P4M0
      000000B1H   SFRSYM    DATA     BYTE      P3M1
      000000A0H   SFRSYM    DATA     BYTE      P2
      000000CAH   SFRSYM    DATA     BYTE      P5M0
      000000B3H   SFRSYM    DATA     BYTE      P4M1
      000000B0H   SFRSYM    DATA     BYTE      P3
      000000ABH   SFRSYM    DATA     BYTE      WKTCH
      000000B0H.4 SFRSYM    DATA     BIT       T0
      000000D0H.6 SFRSYM    DATA     BIT       AC
      000000CCH   SFRSYM    DATA     BYTE      P6M0
      000000C9H   SFRSYM    DATA     BYTE      P5M1
      000000C0H   SFRSYM    DATA     BYTE      P4
      000000B0H.5 SFRSYM    DATA     BIT       CLKOUT0
      000000B0H.5 SFRSYM    DATA     BIT       T1
      000000E2H   SFRSYM    DATA     BYTE      P7M0
      000000CBH   SFRSYM    DATA     BYTE      P6M1
      000000C8H   SFRSYM    DATA     BYTE      P5
      000000A8H.7 SFRSYM    DATA     BIT       EA
      000000B0H.4 SFRSYM    DATA     BIT       CLKOUT1
      000000E8H   SFRSYM    DATA     BYTE      P6
      000000E1H   SFRSYM    DATA     BYTE      P7M1
      00000090H.1 SFRSYM    DATA     BIT       CCP0
      000000F8H   SFRSYM    DATA     BYTE      P7
      000000AAH   SFRSYM    DATA     BYTE      WKTCL
      00000090H.0 SFRSYM    DATA     BIT       CCP1
      000000CEH   SFRSYM    DATA     BYTE      SPCTL
      000000B0H.7 SFRSYM    DATA     BIT       CCP2
      000000D8H.7 SFRSYM    DATA     BIT       CF
      000000F9H   SFRSYM    DATA     BYTE      CH
      000000A2H   SFRSYM    DATA     BYTE      P_SW1
      000000BAH   SFRSYM    DATA     BYTE      P_SW2
      000000A8H.5 SFRSYM    DATA     BIT       EADC
      000000E5H   SFRSYM    DATA     BYTE      DPH1
      000000A8H   SFRSYM    DATA     BYTE      IE
      000000E9H   SFRSYM    DATA     BYTE      CL
      000000C5H   SFRSYM    DATA     BYTE      IAP_CMD
      000000FAH   SFRSYM    DATA     BYTE      CCAP0H
      000000FBH   SFRSYM    DATA     BYTE      CCAP1H
      000000E4H   SFRSYM    DATA     BYTE      DPL1
      000000FCH   SFRSYM    DATA     BYTE      CCAP2H
      000000BDH   SFRSYM    DATA     BYTE      ADC_RES
      000000B6H   SFRSYM    DATA     BYTE      IP2H
      000000EEH   SFRSYM    DATA     BYTE      IP3H
      000000EAH   SFRSYM    DATA     BYTE      CCAP0L
      000000D8H.6 SFRSYM    DATA     BIT       CR
      000000AEH   SFRSYM    DATA     BYTE      TA
      000000B0H.7 SFRSYM    DATA     BIT       RD
      000000EBH   SFRSYM    DATA     BYTE      CCAP1L
      000000DAH   SFRSYM    DATA     BYTE      CCAPM0
      000000ECH   SFRSYM    DATA     BYTE      CCAP2L
      000000DBH   SFRSYM    DATA     BYTE      CCAPM1
LX51 LINKER/LOCATER V4.66.93.0                                                        06/10/2021  10:13:51  PAGE 24


      000000A8H.4 SFRSYM    DATA     BIT       ES
      000000DCH   SFRSYM    DATA     BYTE      CCAPM2
      000000B8H.5 SFRSYM    DATA     BIT       PADC
      000000B8H   SFRSYM    DATA     BYTE      IP
      000000DEH   SFRSYM    DATA     BYTE      ADCCFG
      00000098H.0 SFRSYM    DATA     BIT       RI
      000000B0H.2 SFRSYM    DATA     BIT       INT0
      000000D0H.7 SFRSYM    DATA     BIT       CY
      00000098H.1 SFRSYM    DATA     BIT       TI
      000000B0H.3 SFRSYM    DATA     BIT       INT1
      000000B0H.6 SFRSYM    DATA     BIT       INT2
      000000B0H.7 SFRSYM    DATA     BIT       INT3
      000000B0H.0 SFRSYM    DATA     BIT       INT4
      000000C3H   SFRSYM    DATA     BYTE      IAP_ADDRH
      00000090H.0 SFRSYM    DATA     BIT       RXD2
      00000090H.1 SFRSYM    DATA     BIT       TXD2
      000000B8H.4 SFRSYM    DATA     BIT       PS
      00000081H   SFRSYM    DATA     BYTE      SP
      000000D9H   SFRSYM    DATA     BYTE      CMOD
      000000D8H   SFRSYM    DATA     BYTE      CCON
      000000C4H   SFRSYM    DATA     BYTE      IAP_ADDRL
      000000D0H.2 SFRSYM    DATA     BIT       OV
      000000B8H.7 SFRSYM    DATA     BIT       PPCA
      0000009EH   SFRSYM    DATA     BYTE      LIRTRIM
      000000E6H   SFRSYM    DATA     BYTE      CMPCR1
      000000B0H.6 SFRSYM    DATA     BIT       WR
      000000E7H   SFRSYM    DATA     BYTE      CMPCR2
      000000A8H.6 SFRSYM    DATA     BIT       ELVD
      00000080H.0 SFRSYM    DATA     BIT       P00
      00000090H.0 SFRSYM    DATA     BIT       P10
      00000080H.1 SFRSYM    DATA     BIT       P01
      000000BCH   SFRSYM    DATA     BYTE      ADC_CONTR
      00000099H   SFRSYM    DATA     BYTE      SBUF
      00000087H   SFRSYM    DATA     BYTE      PCON
      000000A0H.0 SFRSYM    DATA     BIT       P20
      00000090H.1 SFRSYM    DATA     BIT       P11
      00000080H.2 SFRSYM    DATA     BIT       P02
      000000B0H.0 SFRSYM    DATA     BIT       P30
      000000A0H.1 SFRSYM    DATA     BIT       P21
      00000090H.2 SFRSYM    DATA     BIT       P12
      00000080H.3 SFRSYM    DATA     BIT       P03
      000000F5H   SFRSYM    DATA     BYTE      IAP_TPS
      000000C0H.0 SFRSYM    DATA     BIT       P40
      000000B0H.1 SFRSYM    DATA     BIT       P31
      000000A0H.2 SFRSYM    DATA     BIT       P22
      00000090H.3 SFRSYM    DATA     BIT       P13
      00000080H.4 SFRSYM    DATA     BIT       P04
      00000098H   SFRSYM    DATA     BYTE      SCON
      000000C8H.0 SFRSYM    DATA     BIT       P50
      000000C0H.1 SFRSYM    DATA     BIT       P41
      000000B0H.2 SFRSYM    DATA     BIT       P32
      000000A0H.3 SFRSYM    DATA     BIT       P23
      00000090H.4 SFRSYM    DATA     BIT       P14
      00000080H.5 SFRSYM    DATA     BIT       P05
      00000089H   SFRSYM    DATA     BYTE      TMOD
      00000088H   SFRSYM    DATA     BYTE      TCON
      000000E8H.0 SFRSYM    DATA     BIT       P60
      000000C8H.1 SFRSYM    DATA     BIT       P51
      000000C0H.2 SFRSYM    DATA     BIT       P42
      000000B0H.3 SFRSYM    DATA     BIT       P33
      000000A0H.4 SFRSYM    DATA     BIT       P24
      00000090H.5 SFRSYM    DATA     BIT       P15
      00000080H.6 SFRSYM    DATA     BIT       P06
      000000F8H.0 SFRSYM    DATA     BIT       P70
      000000E8H.1 SFRSYM    DATA     BIT       P61
LX51 LINKER/LOCATER V4.66.93.0                                                        06/10/2021  10:13:51  PAGE 25


      000000C8H.2 SFRSYM    DATA     BIT       P52
      000000C0H.3 SFRSYM    DATA     BIT       P43
      000000B0H.4 SFRSYM    DATA     BIT       P34
      000000A0H.5 SFRSYM    DATA     BIT       P25
      00000090H.6 SFRSYM    DATA     BIT       P16
      00000080H.7 SFRSYM    DATA     BIT       P07
      000000B8H.6 SFRSYM    DATA     BIT       PLVD
      000000F8H.1 SFRSYM    DATA     BIT       P71
      000000E8H.2 SFRSYM    DATA     BIT       P62
      000000C8H.3 SFRSYM    DATA     BIT       P53
      000000C0H.4 SFRSYM    DATA     BIT       P44
      000000B0H.5 SFRSYM    DATA     BIT       P35
      000000A0H.6 SFRSYM    DATA     BIT       P26
      00000090H.7 SFRSYM    DATA     BIT       P17
      000000F8H.2 SFRSYM    DATA     BIT       P72
      000000E8H.3 SFRSYM    DATA     BIT       P63
      000000C8H.4 SFRSYM    DATA     BIT       P54
      000000C0H.5 SFRSYM    DATA     BIT       P45
      000000B0H.6 SFRSYM    DATA     BIT       P36
      000000A0H.7 SFRSYM    DATA     BIT       P27
      000000F8H.3 SFRSYM    DATA     BIT       P73
      000000E8H.4 SFRSYM    DATA     BIT       P64
      000000C8H.5 SFRSYM    DATA     BIT       P55
      000000C0H.6 SFRSYM    DATA     BIT       P46
      000000B0H.7 SFRSYM    DATA     BIT       P37
      000000F8H.4 SFRSYM    DATA     BIT       P74
      000000E8H.5 SFRSYM    DATA     BIT       P65
      000000C8H.6 SFRSYM    DATA     BIT       P56
      000000C0H.7 SFRSYM    DATA     BIT       P47
      000000F8H.5 SFRSYM    DATA     BIT       P75
      000000E8H.6 SFRSYM    DATA     BIT       P66
      000000C8H.7 SFRSYM    DATA     BIT       P57
      000000F8H.6 SFRSYM    DATA     BIT       P76
      000000E8H.7 SFRSYM    DATA     BIT       P67
      000000F8H.7 SFRSYM    DATA     BIT       P77
      00000088H.1 SFRSYM    DATA     BIT       IE0
      000000A1H   SFRSYM    DATA     BYTE      BUS_SPEED
      00000088H.3 SFRSYM    DATA     BIT       IE1
      000000AFH   SFRSYM    DATA     BYTE      IE2
      000000F0H   SFRSYM    DATA     BYTE      B
      0000008EH   SFRSYM    DATA     BYTE      AUXR
      000000C7H   SFRSYM    DATA     BYTE      IAP_CONTR
      000000F6H   SFRSYM    DATA     BYTE      PWMCFG
      000000E0H   SFRSYM    DATA     BYTE      ACC
      000000A8H.1 SFRSYM    DATA     BIT       ET0
      000000A8H.3 SFRSYM    DATA     BIT       ET1
      00000088H.5 SFRSYM    DATA     BIT       TF0
      00000088H.7 SFRSYM    DATA     BIT       TF1
      000000FFH   SFRSYM    DATA     BYTE      RSTCFG
      000000B5H   SFRSYM    DATA     BYTE      IP2
      00000098H.2 SFRSYM    DATA     BIT       RB8
      000000DFH   SFRSYM    DATA     BYTE      IP3
      0000008CH   SFRSYM    DATA     BYTE      TH0
      000000A8H.0 SFRSYM    DATA     BIT       EX0
      00000088H.0 SFRSYM    DATA     BIT       IT0
      0000008DH   SFRSYM    DATA     BYTE      TH1
      000000A8H.2 SFRSYM    DATA     BIT       EX1
      00000098H.3 SFRSYM    DATA     BIT       TB8
      00000088H.2 SFRSYM    DATA     BIT       IT1
      000000D6H   SFRSYM    DATA     BYTE      TH2
      000000D6H   SFRSYM    DATA     BYTE      T2H
      000000D0H.0 SFRSYM    DATA     BIT       P
      000000D4H   SFRSYM    DATA     BYTE      TH3
      000000D4H   SFRSYM    DATA     BYTE      T3H
      00000098H.7 SFRSYM    DATA     BIT       SM0
LX51 LINKER/LOCATER V4.66.93.0                                                        06/10/2021  10:13:51  PAGE 26


      000000D2H   SFRSYM    DATA     BYTE      TH4
      000000D2H   SFRSYM    DATA     BYTE      T4H
      0000008AH   SFRSYM    DATA     BYTE      TL0
      00000098H.6 SFRSYM    DATA     BIT       SM1
      0000008BH   SFRSYM    DATA     BYTE      TL1
      00000098H.5 SFRSYM    DATA     BIT       SM2
      000000D7H   SFRSYM    DATA     BYTE      TL2
      000000D7H   SFRSYM    DATA     BYTE      T2L
      000000D5H   SFRSYM    DATA     BYTE      TL3
      000000D5H   SFRSYM    DATA     BYTE      T3L
      000000D3H   SFRSYM    DATA     BYTE      TL4
      000000D3H   SFRSYM    DATA     BYTE      T4L
      000000B8H.1 SFRSYM    DATA     BIT       PT0
      000000D0H.3 SFRSYM    DATA     BIT       RS0
      000000B8H.3 SFRSYM    DATA     BIT       PT1
      00000088H.4 SFRSYM    DATA     BIT       TR0
      000000D0H.4 SFRSYM    DATA     BIT       RS1
      000000C2H   SFRSYM    DATA     BYTE      IAP_DATA
      00000088H.6 SFRSYM    DATA     BIT       TR1
      000000C1H   SFRSYM    DATA     BYTE      WDT_CONTR
      000000B8H.0 SFRSYM    DATA     BIT       PX0
      000000B8H.2 SFRSYM    DATA     BIT       PX1
      0000009FH   SFRSYM    DATA     BYTE      IRTRIM
      000000F2H   SFRSYM    DATA     BYTE      PCA_PWM0
      000000F3H   SFRSYM    DATA     BYTE      PCA_PWM1
      000000F4H   SFRSYM    DATA     BYTE      PCA_PWM2
      00000083H   SFRSYM    DATA     BYTE      DPH
      000000D1H   SFRSYM    DATA     BYTE      T4T3M
      000000BEH   SFRSYM    DATA     BYTE      ADC_RESL
      00000082H   SFRSYM    DATA     BYTE      DPL
      000000CDH   SFRSYM    DATA     BYTE      SPSTAT
      000000B7H   SFRSYM    DATA     BYTE      IPH
      000000F1H   SFRSYM    DATA     BYTE      PWMSET
      0000009BH   SFRSYM    DATA     BYTE      S2BUF
      000000ADH   SFRSYM    DATA     BYTE      S3BUF
      00000098H.4 SFRSYM    DATA     BIT       REN
      00000085H   SFRSYM    DATA     BYTE      S4BUF
      0000009AH   SFRSYM    DATA     BYTE      S2CON
      000000E3H   SFRSYM    DATA     BYTE      DPS
      000000ACH   SFRSYM    DATA     BYTE      S3CON
      00000084H   SFRSYM    DATA     BYTE      S4CON
      000000EFH   SFRSYM    DATA     BYTE      AUXINTIF
      000000B9H   SFRSYM    DATA     BYTE      SADEN
      000000B0H.0 SFRSYM    DATA     BIT       RXD
      000000A9H   SFRSYM    DATA     BYTE      SADDR
      000000B0H.1 SFRSYM    DATA     BIT       TXD
      000000F0H.0 SFRSYM    DATA     BIT       B0
      000000F0H.1 SFRSYM    DATA     BIT       B1
      000000C6H   SFRSYM    DATA     BYTE      IAP_TRIG
      000000A2H   SFRSYM    DATA     BYTE      AUXR1
      000000F0H.2 SFRSYM    DATA     BIT       B2
      000000F0H.3 SFRSYM    DATA     BIT       B3
      000000F0H.4 SFRSYM    DATA     BIT       B4
      000000D0H.5 SFRSYM    DATA     BIT       F0
      0000009DH   SFRSYM    DATA     BYTE      IRCBAND
      000000F0H.5 SFRSYM    DATA     BIT       B5
      000000D0H.1 SFRSYM    DATA     BIT       F1
      0000008FH   SFRSYM    DATA     BYTE      INT_CLKO
      000000F0H.6 SFRSYM    DATA     BIT       B6
      000000E0H.0 SFRSYM    DATA     BIT       ACC0
      000000F0H.7 SFRSYM    DATA     BIT       B7
      000000E0H.1 SFRSYM    DATA     BIT       ACC1
      000000E0H.2 SFRSYM    DATA     BIT       ACC2
      000000E0H.3 SFRSYM    DATA     BIT       ACC3
      000000D0H   SFRSYM    DATA     BYTE      PSW
LX51 LINKER/LOCATER V4.66.93.0                                                        06/10/2021  10:13:51  PAGE 27


      000000E0H.4 SFRSYM    DATA     BIT       ACC4
      000000E0H.5 SFRSYM    DATA     BIT       ACC5
      000000D8H.0 SFRSYM    DATA     BIT       CCF0
      000000E0H.6 SFRSYM    DATA     BIT       ACC6
      000000D8H.1 SFRSYM    DATA     BIT       CCF1
      000000CFH   SFRSYM    DATA     BYTE      SPDAT
      00000094H   SFRSYM    DATA     BYTE      P0M0

      0100058DH   BLOCK     CODE     ---       LVL=0
      00000001H   SYMBOL    DATA     ---       I2Cx
      0100058DH   LINE      CODE     ---       #28
      0100058DH   LINE      CODE     ---       #29
      0100058DH   LINE      CODE     ---       #30
      01000590H   LINE      CODE     ---       #32
      0100059AH   LINE      CODE     ---       #33
      0100059AH   LINE      CODE     ---       #34
      010005A1H   LINE      CODE     ---       #35
      010005A6H   LINE      CODE     ---       #36
      010005B4H   LINE      CODE     ---       #37
      010005C3H   LINE      CODE     ---       #41
      010005C3H   LINE      CODE     ---       #42
      010005CAH   LINE      CODE     ---       #43
      010005CFH   LINE      CODE     ---       #44
      010005E0H   LINE      CODE     ---       #45
      010005F3H   LINE      CODE     ---       #46
      010005F7H   LINE      CODE     ---       #47
      010005F7H   LINE      CODE     ---       #49
      0100060CH   LINE      CODE     ---       #54
      0100060FH   LINE      CODE     ---       #55
      ---         BLOCKEND  ---      ---       LVL=0

      0100000EH   BLOCK     CODE     ---       LVL=0
      0100000EH   LINE      CODE     ---       #64
      0100000EH   LINE      CODE     ---       #65
      0100000EH   LINE      CODE     ---       #66
      01000015H   LINE      CODE     ---       #67
      01000019H   LINE      CODE     ---       #68
      ---         BLOCKEND  ---      ---       LVL=0

      010008DDH   BLOCK     CODE     ---       LVL=0
      010008DDH   LINE      CODE     ---       #77
      010008DDH   LINE      CODE     ---       #78
      010008DDH   LINE      CODE     ---       #79
      010008E3H   LINE      CODE     ---       #80
      ---         BLOCKEND  ---      ---       LVL=0

      010008B5H   BLOCK     CODE     ---       LVL=0
      00000007H   SYMBOL    DATA     CHAR      dat
      010008B5H   LINE      CODE     ---       #90
      010008B5H   LINE      CODE     ---       #91
      010008B5H   LINE      CODE     ---       #92
      010008BAH   LINE      CODE     ---       #93
      010008C0H   LINE      CODE     ---       #94
      ---         BLOCKEND  ---      ---       LVL=0

      01000879H   BLOCK     CODE     ---       LVL=0
      ---         BLOCKEND  ---      ---       LVL=0

      0100088EH   BLOCK     CODE     ---       LVL=0
      0100088EH   LINE      CODE     ---       #104
      0100088EH   LINE      CODE     ---       #105
      0100088EH   LINE      CODE     ---       #106
      01000894H   LINE      CODE     ---       #107
      ---         BLOCKEND  ---      ---       LVL=0

LX51 LINKER/LOCATER V4.66.93.0                                                        06/10/2021  10:13:51  PAGE 28


      01000897H   BLOCK     CODE     ---       LVL=0
      01000897H   LINE      CODE     ---       #117
      01000897H   LINE      CODE     ---       #118
      01000897H   LINE      CODE     ---       #119
      0100089DH   LINE      CODE     ---       #120
      010008A0H   LINE      CODE     ---       #121
      010008A5H   LINE      CODE     ---       #122
      ---         BLOCKEND  ---      ---       LVL=0

      010008C3H   BLOCK     CODE     ---       LVL=0
      010008C3H   LINE      CODE     ---       #131
      010008C3H   LINE      CODE     ---       #132
      010008C3H   LINE      CODE     ---       #133
      010008C8H   LINE      CODE     ---       #134
      010008CEH   LINE      CODE     ---       #135
      ---         BLOCKEND  ---      ---       LVL=0

      010008A6H   BLOCK     CODE     ---       LVL=0
      010008A6H   LINE      CODE     ---       #145
      010008A6H   LINE      CODE     ---       #146
      010008A6H   LINE      CODE     ---       #147
      010008ACH   LINE      CODE     ---       #148
      010008B2H   LINE      CODE     ---       #149
      ---         BLOCKEND  ---      ---       LVL=0

      010008E6H   BLOCK     CODE     ---       LVL=0
      010008E6H   LINE      CODE     ---       #159
      010008E6H   LINE      CODE     ---       #160
      010008E6H   LINE      CODE     ---       #161
      010008ECH   LINE      CODE     ---       #162
      ---         BLOCKEND  ---      ---       LVL=0

      0100080DH   BLOCK     CODE     ---       LVL=0
      00000006H   SYMBOL    DATA     BYTE      addr
      00000025H   SYMBOL    DATA     ---       p
      00000028H   SYMBOL    DATA     BYTE      number
      0100080DH   LINE      CODE     ---       #172
      01000813H   LINE      CODE     ---       #173
      01000813H   LINE      CODE     ---       #174
      01000813H   LINE      CODE     ---       #175
      01000813H   LINE      CODE     ---       #176
      01000813H   LINE      CODE     ---       #177
      01000813H   LINE      CODE     ---       #178
      01000813H   LINE      CODE     ---       #179
      01000816H   LINE      CODE     ---       #181
      01000816H   LINE      CODE     ---       #182
      0100082BH   LINE      CODE     ---       #183
      0100082EH   LINE      CODE     ---       #184
      0100082EH   LINE      CODE     ---       #185
      01000831H   LINE      CODE     ---       #186
      01000834H   LINE      CODE     ---       #187
      01000837H   LINE      CODE     ---       #188
      ---         BLOCKEND  ---      ---       LVL=0

      01000066H   BLOCK     CODE     ---       LVL=0
      00000006H   SYMBOL    DATA     BYTE      addr
      00000001H   SYMBOL    DATA     ---       p
      00000028H   SYMBOL    DATA     BYTE      number
      01000066H   LINE      CODE     ---       #197
      01000066H   LINE      CODE     ---       #198
      01000066H   LINE      CODE     ---       #199
      01000066H   LINE      CODE     ---       #200
      01000066H   LINE      CODE     ---       #201
      01000066H   LINE      CODE     ---       #202
      01000066H   LINE      CODE     ---       #203
LX51 LINKER/LOCATER V4.66.93.0                                                        06/10/2021  10:13:51  PAGE 29


      01000066H   LINE      CODE     ---       #204
      01000069H   LINE      CODE     ---       #205
      0100006CH   LINE      CODE     ---       #206
      01000071H   LINE      CODE     ---       #207
      01000074H   LINE      CODE     ---       #209
      01000074H   LINE      CODE     ---       #210
      0100007BH   LINE      CODE     ---       #211
      01000082H   LINE      CODE     ---       #212
      0100008BH   LINE      CODE     ---       #213
      0100008BH   LINE      CODE     ---       #214
      0100008EH   LINE      CODE     ---       #215
      01000091H   LINE      CODE     ---       #216
      01000094H   LINE      CODE     ---       #217
      01000097H   LINE      CODE     ---       #218
      ---         BLOCKEND  ---      ---       LVL=0

      ---         MODULE    ---      ---       STC8A_I2C_ISR
      0000001CH   PUBLIC    DATA     ---       I2CIsr
      00000020H.1 PUBLIC    BIT      BIT       DisplayFlag
      0100044FH   PUBLIC    CODE     ---       I2C_ISR_Handler
      000000E0H.7 SFRSYM    DATA     BIT       ACC7
      000000D8H.2 SFRSYM    DATA     BIT       CCF2
      00000093H   SFRSYM    DATA     BYTE      P0M1
      00000092H   SFRSYM    DATA     BYTE      P1M0
      000000D8H.3 SFRSYM    DATA     BIT       CCF3
      00000096H   SFRSYM    DATA     BYTE      P2M0
      00000091H   SFRSYM    DATA     BYTE      P1M1
      00000080H   SFRSYM    DATA     BYTE      P0
      000000B2H   SFRSYM    DATA     BYTE      P3M0
      00000095H   SFRSYM    DATA     BYTE      P2M1
      00000090H   SFRSYM    DATA     BYTE      P1
      000000B4H   SFRSYM    DATA     BYTE      P4M0
      000000B1H   SFRSYM    DATA     BYTE      P3M1
      000000A0H   SFRSYM    DATA     BYTE      P2
      000000CAH   SFRSYM    DATA     BYTE      P5M0
      000000B3H   SFRSYM    DATA     BYTE      P4M1
      000000B0H   SFRSYM    DATA     BYTE      P3
      000000ABH   SFRSYM    DATA     BYTE      WKTCH
      000000B0H.4 SFRSYM    DATA     BIT       T0
      000000D0H.6 SFRSYM    DATA     BIT       AC
      000000CCH   SFRSYM    DATA     BYTE      P6M0
      000000C9H   SFRSYM    DATA     BYTE      P5M1
      000000C0H   SFRSYM    DATA     BYTE      P4
      000000B0H.5 SFRSYM    DATA     BIT       CLKOUT0
      000000B0H.5 SFRSYM    DATA     BIT       T1
      000000E2H   SFRSYM    DATA     BYTE      P7M0
      000000CBH   SFRSYM    DATA     BYTE      P6M1
      000000C8H   SFRSYM    DATA     BYTE      P5
      000000A8H.7 SFRSYM    DATA     BIT       EA
      000000B0H.4 SFRSYM    DATA     BIT       CLKOUT1
      000000E8H   SFRSYM    DATA     BYTE      P6
      000000E1H   SFRSYM    DATA     BYTE      P7M1
      00000090H.1 SFRSYM    DATA     BIT       CCP0
      000000F8H   SFRSYM    DATA     BYTE      P7
      000000AAH   SFRSYM    DATA     BYTE      WKTCL
      00000090H.0 SFRSYM    DATA     BIT       CCP1
      000000CEH   SFRSYM    DATA     BYTE      SPCTL
      000000B0H.7 SFRSYM    DATA     BIT       CCP2
      000000D8H.7 SFRSYM    DATA     BIT       CF
      000000F9H   SFRSYM    DATA     BYTE      CH
      000000A2H   SFRSYM    DATA     BYTE      P_SW1
      000000BAH   SFRSYM    DATA     BYTE      P_SW2
      000000A8H.5 SFRSYM    DATA     BIT       EADC
      000000E5H   SFRSYM    DATA     BYTE      DPH1
      000000A8H   SFRSYM    DATA     BYTE      IE
LX51 LINKER/LOCATER V4.66.93.0                                                        06/10/2021  10:13:51  PAGE 30


      000000E9H   SFRSYM    DATA     BYTE      CL
      000000C5H   SFRSYM    DATA     BYTE      IAP_CMD
      000000FAH   SFRSYM    DATA     BYTE      CCAP0H
      000000FBH   SFRSYM    DATA     BYTE      CCAP1H
      000000E4H   SFRSYM    DATA     BYTE      DPL1
      000000FCH   SFRSYM    DATA     BYTE      CCAP2H
      000000BDH   SFRSYM    DATA     BYTE      ADC_RES
      000000B6H   SFRSYM    DATA     BYTE      IP2H
      000000EEH   SFRSYM    DATA     BYTE      IP3H
      000000EAH   SFRSYM    DATA     BYTE      CCAP0L
      000000D8H.6 SFRSYM    DATA     BIT       CR
      000000AEH   SFRSYM    DATA     BYTE      TA
      000000B0H.7 SFRSYM    DATA     BIT       RD
      000000EBH   SFRSYM    DATA     BYTE      CCAP1L
      000000DAH   SFRSYM    DATA     BYTE      CCAPM0
      000000ECH   SFRSYM    DATA     BYTE      CCAP2L
      000000DBH   SFRSYM    DATA     BYTE      CCAPM1
      000000A8H.4 SFRSYM    DATA     BIT       ES
      000000DCH   SFRSYM    DATA     BYTE      CCAPM2
      000000B8H.5 SFRSYM    DATA     BIT       PADC
      000000B8H   SFRSYM    DATA     BYTE      IP
      000000DEH   SFRSYM    DATA     BYTE      ADCCFG
      00000098H.0 SFRSYM    DATA     BIT       RI
      000000B0H.2 SFRSYM    DATA     BIT       INT0
      000000D0H.7 SFRSYM    DATA     BIT       CY
      00000098H.1 SFRSYM    DATA     BIT       TI
      000000B0H.3 SFRSYM    DATA     BIT       INT1
      000000B0H.6 SFRSYM    DATA     BIT       INT2
      000000B0H.7 SFRSYM    DATA     BIT       INT3
      000000B0H.0 SFRSYM    DATA     BIT       INT4
      000000C3H   SFRSYM    DATA     BYTE      IAP_ADDRH
      00000090H.0 SFRSYM    DATA     BIT       RXD2
      00000090H.1 SFRSYM    DATA     BIT       TXD2
      000000B8H.4 SFRSYM    DATA     BIT       PS
      00000081H   SFRSYM    DATA     BYTE      SP
      000000D9H   SFRSYM    DATA     BYTE      CMOD
      000000D8H   SFRSYM    DATA     BYTE      CCON
      000000C4H   SFRSYM    DATA     BYTE      IAP_ADDRL
      000000D0H.2 SFRSYM    DATA     BIT       OV
      000000B8H.7 SFRSYM    DATA     BIT       PPCA
      0000009EH   SFRSYM    DATA     BYTE      LIRTRIM
      000000E6H   SFRSYM    DATA     BYTE      CMPCR1
      000000B0H.6 SFRSYM    DATA     BIT       WR
      000000E7H   SFRSYM    DATA     BYTE      CMPCR2
      000000A8H.6 SFRSYM    DATA     BIT       ELVD
      00000080H.0 SFRSYM    DATA     BIT       P00
      00000090H.0 SFRSYM    DATA     BIT       P10
      00000080H.1 SFRSYM    DATA     BIT       P01
      000000BCH   SFRSYM    DATA     BYTE      ADC_CONTR
      00000099H   SFRSYM    DATA     BYTE      SBUF
      00000087H   SFRSYM    DATA     BYTE      PCON
      000000A0H.0 SFRSYM    DATA     BIT       P20
      00000090H.1 SFRSYM    DATA     BIT       P11
      00000080H.2 SFRSYM    DATA     BIT       P02
      000000B0H.0 SFRSYM    DATA     BIT       P30
      000000A0H.1 SFRSYM    DATA     BIT       P21
      00000090H.2 SFRSYM    DATA     BIT       P12
      00000080H.3 SFRSYM    DATA     BIT       P03
      000000F5H   SFRSYM    DATA     BYTE      IAP_TPS
      000000C0H.0 SFRSYM    DATA     BIT       P40
      000000B0H.1 SFRSYM    DATA     BIT       P31
      000000A0H.2 SFRSYM    DATA     BIT       P22
      00000090H.3 SFRSYM    DATA     BIT       P13
      00000080H.4 SFRSYM    DATA     BIT       P04
      00000098H   SFRSYM    DATA     BYTE      SCON
LX51 LINKER/LOCATER V4.66.93.0                                                        06/10/2021  10:13:51  PAGE 31


      000000C8H.0 SFRSYM    DATA     BIT       P50
      000000C0H.1 SFRSYM    DATA     BIT       P41
      000000B0H.2 SFRSYM    DATA     BIT       P32
      000000A0H.3 SFRSYM    DATA     BIT       P23
      00000090H.4 SFRSYM    DATA     BIT       P14
      00000080H.5 SFRSYM    DATA     BIT       P05
      00000089H   SFRSYM    DATA     BYTE      TMOD
      00000088H   SFRSYM    DATA     BYTE      TCON
      000000E8H.0 SFRSYM    DATA     BIT       P60
      000000C8H.1 SFRSYM    DATA     BIT       P51
      000000C0H.2 SFRSYM    DATA     BIT       P42
      000000B0H.3 SFRSYM    DATA     BIT       P33
      000000A0H.4 SFRSYM    DATA     BIT       P24
      00000090H.5 SFRSYM    DATA     BIT       P15
      00000080H.6 SFRSYM    DATA     BIT       P06
      000000F8H.0 SFRSYM    DATA     BIT       P70
      000000E8H.1 SFRSYM    DATA     BIT       P61
      000000C8H.2 SFRSYM    DATA     BIT       P52
      000000C0H.3 SFRSYM    DATA     BIT       P43
      000000B0H.4 SFRSYM    DATA     BIT       P34
      000000A0H.5 SFRSYM    DATA     BIT       P25
      00000090H.6 SFRSYM    DATA     BIT       P16
      00000080H.7 SFRSYM    DATA     BIT       P07
      000000B8H.6 SFRSYM    DATA     BIT       PLVD
      000000F8H.1 SFRSYM    DATA     BIT       P71
      000000E8H.2 SFRSYM    DATA     BIT       P62
      000000C8H.3 SFRSYM    DATA     BIT       P53
      000000C0H.4 SFRSYM    DATA     BIT       P44
      000000B0H.5 SFRSYM    DATA     BIT       P35
      000000A0H.6 SFRSYM    DATA     BIT       P26
      00000090H.7 SFRSYM    DATA     BIT       P17
      000000F8H.2 SFRSYM    DATA     BIT       P72
      000000E8H.3 SFRSYM    DATA     BIT       P63
      000000C8H.4 SFRSYM    DATA     BIT       P54
      000000C0H.5 SFRSYM    DATA     BIT       P45
      000000B0H.6 SFRSYM    DATA     BIT       P36
      000000A0H.7 SFRSYM    DATA     BIT       P27
      000000F8H.3 SFRSYM    DATA     BIT       P73
      000000E8H.4 SFRSYM    DATA     BIT       P64
      000000C8H.5 SFRSYM    DATA     BIT       P55
      000000C0H.6 SFRSYM    DATA     BIT       P46
      000000B0H.7 SFRSYM    DATA     BIT       P37
      000000F8H.4 SFRSYM    DATA     BIT       P74
      000000E8H.5 SFRSYM    DATA     BIT       P65
      000000C8H.6 SFRSYM    DATA     BIT       P56
      000000C0H.7 SFRSYM    DATA     BIT       P47
      000000F8H.5 SFRSYM    DATA     BIT       P75
      000000E8H.6 SFRSYM    DATA     BIT       P66
      000000C8H.7 SFRSYM    DATA     BIT       P57
      000000F8H.6 SFRSYM    DATA     BIT       P76
      000000E8H.7 SFRSYM    DATA     BIT       P67
      000000F8H.7 SFRSYM    DATA     BIT       P77
      00000088H.1 SFRSYM    DATA     BIT       IE0
      000000A1H   SFRSYM    DATA     BYTE      BUS_SPEED
      00000088H.3 SFRSYM    DATA     BIT       IE1
      000000AFH   SFRSYM    DATA     BYTE      IE2
      000000F0H   SFRSYM    DATA     BYTE      B
      0000008EH   SFRSYM    DATA     BYTE      AUXR
      000000C7H   SFRSYM    DATA     BYTE      IAP_CONTR
      000000F6H   SFRSYM    DATA     BYTE      PWMCFG
      000000E0H   SFRSYM    DATA     BYTE      ACC
      000000A8H.1 SFRSYM    DATA     BIT       ET0
      000000A8H.3 SFRSYM    DATA     BIT       ET1
      00000088H.5 SFRSYM    DATA     BIT       TF0
      00000088H.7 SFRSYM    DATA     BIT       TF1
LX51 LINKER/LOCATER V4.66.93.0                                                        06/10/2021  10:13:51  PAGE 32


      000000FFH   SFRSYM    DATA     BYTE      RSTCFG
      000000B5H   SFRSYM    DATA     BYTE      IP2
      00000098H.2 SFRSYM    DATA     BIT       RB8
      000000DFH   SFRSYM    DATA     BYTE      IP3
      0000008CH   SFRSYM    DATA     BYTE      TH0
      000000A8H.0 SFRSYM    DATA     BIT       EX0
      00000088H.0 SFRSYM    DATA     BIT       IT0
      0000008DH   SFRSYM    DATA     BYTE      TH1
      000000A8H.2 SFRSYM    DATA     BIT       EX1
      00000098H.3 SFRSYM    DATA     BIT       TB8
      00000088H.2 SFRSYM    DATA     BIT       IT1
      000000D6H   SFRSYM    DATA     BYTE      TH2
      000000D6H   SFRSYM    DATA     BYTE      T2H
      000000D0H.0 SFRSYM    DATA     BIT       P
      000000D4H   SFRSYM    DATA     BYTE      TH3
      000000D4H   SFRSYM    DATA     BYTE      T3H
      00000098H.7 SFRSYM    DATA     BIT       SM0
      000000D2H   SFRSYM    DATA     BYTE      TH4
      000000D2H   SFRSYM    DATA     BYTE      T4H
      0000008AH   SFRSYM    DATA     BYTE      TL0
      00000098H.6 SFRSYM    DATA     BIT       SM1
      0000008BH   SFRSYM    DATA     BYTE      TL1
      00000098H.5 SFRSYM    DATA     BIT       SM2
      000000D7H   SFRSYM    DATA     BYTE      TL2
      000000D7H   SFRSYM    DATA     BYTE      T2L
      000000D5H   SFRSYM    DATA     BYTE      TL3
      000000D5H   SFRSYM    DATA     BYTE      T3L
      000000D3H   SFRSYM    DATA     BYTE      TL4
      000000D3H   SFRSYM    DATA     BYTE      T4L
      000000B8H.1 SFRSYM    DATA     BIT       PT0
      000000D0H.3 SFRSYM    DATA     BIT       RS0
      000000B8H.3 SFRSYM    DATA     BIT       PT1
      00000088H.4 SFRSYM    DATA     BIT       TR0
      000000D0H.4 SFRSYM    DATA     BIT       RS1
      000000C2H   SFRSYM    DATA     BYTE      IAP_DATA
      00000088H.6 SFRSYM    DATA     BIT       TR1
      000000C1H   SFRSYM    DATA     BYTE      WDT_CONTR
      000000B8H.0 SFRSYM    DATA     BIT       PX0
      000000B8H.2 SFRSYM    DATA     BIT       PX1
      0000009FH   SFRSYM    DATA     BYTE      IRTRIM
      000000F2H   SFRSYM    DATA     BYTE      PCA_PWM0
      000000F3H   SFRSYM    DATA     BYTE      PCA_PWM1
      000000F4H   SFRSYM    DATA     BYTE      PCA_PWM2
      00000083H   SFRSYM    DATA     BYTE      DPH
      000000D1H   SFRSYM    DATA     BYTE      T4T3M
      000000BEH   SFRSYM    DATA     BYTE      ADC_RESL
      00000082H   SFRSYM    DATA     BYTE      DPL
      000000CDH   SFRSYM    DATA     BYTE      SPSTAT
      000000B7H   SFRSYM    DATA     BYTE      IPH
      000000F1H   SFRSYM    DATA     BYTE      PWMSET
      0000009BH   SFRSYM    DATA     BYTE      S2BUF
      000000ADH   SFRSYM    DATA     BYTE      S3BUF
      00000098H.4 SFRSYM    DATA     BIT       REN
      00000085H   SFRSYM    DATA     BYTE      S4BUF
      0000009AH   SFRSYM    DATA     BYTE      S2CON
      000000E3H   SFRSYM    DATA     BYTE      DPS
      000000ACH   SFRSYM    DATA     BYTE      S3CON
      00000084H   SFRSYM    DATA     BYTE      S4CON
      000000EFH   SFRSYM    DATA     BYTE      AUXINTIF
      000000B9H   SFRSYM    DATA     BYTE      SADEN
      000000B0H.0 SFRSYM    DATA     BIT       RXD
      000000A9H   SFRSYM    DATA     BYTE      SADDR
      000000B0H.1 SFRSYM    DATA     BIT       TXD
      000000F0H.0 SFRSYM    DATA     BIT       B0
      000000F0H.1 SFRSYM    DATA     BIT       B1
LX51 LINKER/LOCATER V4.66.93.0                                                        06/10/2021  10:13:51  PAGE 33


      000000C6H   SFRSYM    DATA     BYTE      IAP_TRIG
      000000A2H   SFRSYM    DATA     BYTE      AUXR1
      000000F0H.2 SFRSYM    DATA     BIT       B2
      000000F0H.3 SFRSYM    DATA     BIT       B3
      000000F0H.4 SFRSYM    DATA     BIT       B4
      000000D0H.5 SFRSYM    DATA     BIT       F0
      0000009DH   SFRSYM    DATA     BYTE      IRCBAND
      000000F0H.5 SFRSYM    DATA     BIT       B5
      000000D0H.1 SFRSYM    DATA     BIT       F1
      0000008FH   SFRSYM    DATA     BYTE      INT_CLKO
      000000F0H.6 SFRSYM    DATA     BIT       B6
      000000E0H.0 SFRSYM    DATA     BIT       ACC0
      000000F0H.7 SFRSYM    DATA     BIT       B7
      000000E0H.1 SFRSYM    DATA     BIT       ACC1
      000000E0H.2 SFRSYM    DATA     BIT       ACC2
      000000E0H.3 SFRSYM    DATA     BIT       ACC3
      000000D0H   SFRSYM    DATA     BYTE      PSW
      000000E0H.4 SFRSYM    DATA     BIT       ACC4
      000000E0H.5 SFRSYM    DATA     BIT       ACC5
      000000D8H.0 SFRSYM    DATA     BIT       CCF0
      000000E0H.6 SFRSYM    DATA     BIT       ACC6
      000000D8H.1 SFRSYM    DATA     BIT       CCF1
      000000CFH   SFRSYM    DATA     BYTE      SPDAT
      00000094H   SFRSYM    DATA     BYTE      P0M0

      0100044FH   BLOCK     CODE     ---       LVL=0
      01000460H   BLOCK     CODE     NEAR LAB  LVL=1
      00000007H   SYMBOL    DATA     CHAR      store
      ---         BLOCKEND  ---      ---       LVL=1
      0100044FH   LINE      CODE     ---       #34
      01000460H   LINE      CODE     ---       #38
      01000462H   LINE      CODE     ---       #39
      01000465H   LINE      CODE     ---       #42
      0100046CH   LINE      CODE     ---       #43
      0100046CH   LINE      CODE     ---       #44
      01000470H   LINE      CODE     ---       #45
      01000472H   LINE      CODE     ---       #46
      01000479H   LINE      CODE     ---       #47
      01000479H   LINE      CODE     ---       #48
      0100047DH   LINE      CODE     ---       #49
      01000481H   LINE      CODE     ---       #50
      01000481H   LINE      CODE     ---       #51
      01000484H   LINE      CODE     ---       #52
      01000486H   LINE      CODE     ---       #53
      0100048AH   LINE      CODE     ---       #54
      0100048AH   LINE      CODE     ---       #55
      0100048DH   LINE      CODE     ---       #56
      01000493H   LINE      CODE     ---       #57
      01000495H   LINE      CODE     ---       #58
      01000497H   LINE      CODE     ---       #60
      01000497H   LINE      CODE     ---       #61
      010004ACH   LINE      CODE     ---       #62
      010004ACH   LINE      CODE     ---       #63
      010004AEH   LINE      CODE     ---       #64
      010004B5H   LINE      CODE     ---       #65
      010004B5H   LINE      CODE     ---       #66
      010004B9H   LINE      CODE     ---       #67
      010004BDH   LINE      CODE     ---       #68
      010004BDH   LINE      CODE     ---       #69
      010004C3H   LINE      CODE     ---       #70
      010004C5H   LINE      CODE     ---       #72
      010004C5H   LINE      CODE     ---       #73
      010004D7H   LINE      CODE     ---       #74
      010004D7H   LINE      CODE     ---       #75
      010004D9H   LINE      CODE     ---       #76
LX51 LINKER/LOCATER V4.66.93.0                                                        06/10/2021  10:13:51  PAGE 34


      010004E0H   LINE      CODE     ---       #77
      010004E0H   LINE      CODE     ---       #78
      010004E4H   LINE      CODE     ---       #79
      010004E7H   LINE      CODE     ---       #80
      010004EAH   LINE      CODE     ---       #81
      010004ECH   LINE      CODE     ---       #82
      010004ECH   LINE      CODE     ---       #84
      010004EEH   LINE      CODE     ---       #85
      ---         BLOCKEND  ---      ---       LVL=0

      ---         MODULE    ---      ---       STC8A_NVIC
      01000686H   PUBLIC    CODE     ---       _NVIC_I2C_Init
      01000742H   PUBLIC    CODE     ---       _NVIC_Timer0_Init
      000000E0H.7 SFRSYM    DATA     BIT       ACC7
      000000D8H.2 SFRSYM    DATA     BIT       CCF2
      00000093H   SFRSYM    DATA     BYTE      P0M1
      00000092H   SFRSYM    DATA     BYTE      P1M0
      000000D8H.3 SFRSYM    DATA     BIT       CCF3
      00000096H   SFRSYM    DATA     BYTE      P2M0
      00000091H   SFRSYM    DATA     BYTE      P1M1
      00000080H   SFRSYM    DATA     BYTE      P0
      000000B2H   SFRSYM    DATA     BYTE      P3M0
      00000095H   SFRSYM    DATA     BYTE      P2M1
      00000090H   SFRSYM    DATA     BYTE      P1
      000000B4H   SFRSYM    DATA     BYTE      P4M0
      000000B1H   SFRSYM    DATA     BYTE      P3M1
      000000A0H   SFRSYM    DATA     BYTE      P2
      000000CAH   SFRSYM    DATA     BYTE      P5M0
      000000B3H   SFRSYM    DATA     BYTE      P4M1
      000000B0H   SFRSYM    DATA     BYTE      P3
      000000ABH   SFRSYM    DATA     BYTE      WKTCH
      000000B0H.4 SFRSYM    DATA     BIT       T0
      000000D0H.6 SFRSYM    DATA     BIT       AC
      000000CCH   SFRSYM    DATA     BYTE      P6M0
      000000C9H   SFRSYM    DATA     BYTE      P5M1
      000000C0H   SFRSYM    DATA     BYTE      P4
      000000B0H.5 SFRSYM    DATA     BIT       CLKOUT0
      000000B0H.5 SFRSYM    DATA     BIT       T1
      000000E2H   SFRSYM    DATA     BYTE      P7M0
      000000CBH   SFRSYM    DATA     BYTE      P6M1
      000000C8H   SFRSYM    DATA     BYTE      P5
      000000A8H.7 SFRSYM    DATA     BIT       EA
      000000B0H.4 SFRSYM    DATA     BIT       CLKOUT1
      000000E8H   SFRSYM    DATA     BYTE      P6
      000000E1H   SFRSYM    DATA     BYTE      P7M1
      00000090H.1 SFRSYM    DATA     BIT       CCP0
      000000F8H   SFRSYM    DATA     BYTE      P7
      000000AAH   SFRSYM    DATA     BYTE      WKTCL
      00000090H.0 SFRSYM    DATA     BIT       CCP1
      000000CEH   SFRSYM    DATA     BYTE      SPCTL
      000000B0H.7 SFRSYM    DATA     BIT       CCP2
      000000D8H.7 SFRSYM    DATA     BIT       CF
      000000F9H   SFRSYM    DATA     BYTE      CH
      000000A2H   SFRSYM    DATA     BYTE      P_SW1
      000000BAH   SFRSYM    DATA     BYTE      P_SW2
      000000A8H.5 SFRSYM    DATA     BIT       EADC
      000000E5H   SFRSYM    DATA     BYTE      DPH1
      000000A8H   SFRSYM    DATA     BYTE      IE
      000000E9H   SFRSYM    DATA     BYTE      CL
      000000C5H   SFRSYM    DATA     BYTE      IAP_CMD
      000000FAH   SFRSYM    DATA     BYTE      CCAP0H
      000000FBH   SFRSYM    DATA     BYTE      CCAP1H
      000000E4H   SFRSYM    DATA     BYTE      DPL1
      000000FCH   SFRSYM    DATA     BYTE      CCAP2H
      000000BDH   SFRSYM    DATA     BYTE      ADC_RES
LX51 LINKER/LOCATER V4.66.93.0                                                        06/10/2021  10:13:51  PAGE 35


      000000B6H   SFRSYM    DATA     BYTE      IP2H
      000000EEH   SFRSYM    DATA     BYTE      IP3H
      000000EAH   SFRSYM    DATA     BYTE      CCAP0L
      000000D8H.6 SFRSYM    DATA     BIT       CR
      000000AEH   SFRSYM    DATA     BYTE      TA
      000000B0H.7 SFRSYM    DATA     BIT       RD
      000000EBH   SFRSYM    DATA     BYTE      CCAP1L
      000000DAH   SFRSYM    DATA     BYTE      CCAPM0
      000000ECH   SFRSYM    DATA     BYTE      CCAP2L
      000000DBH   SFRSYM    DATA     BYTE      CCAPM1
      000000A8H.4 SFRSYM    DATA     BIT       ES
      000000DCH   SFRSYM    DATA     BYTE      CCAPM2
      000000B8H.5 SFRSYM    DATA     BIT       PADC
      000000B8H   SFRSYM    DATA     BYTE      IP
      000000DEH   SFRSYM    DATA     BYTE      ADCCFG
      00000098H.0 SFRSYM    DATA     BIT       RI
      000000B0H.2 SFRSYM    DATA     BIT       INT0
      000000D0H.7 SFRSYM    DATA     BIT       CY
      00000098H.1 SFRSYM    DATA     BIT       TI
      000000B0H.3 SFRSYM    DATA     BIT       INT1
      000000B0H.6 SFRSYM    DATA     BIT       INT2
      000000B0H.7 SFRSYM    DATA     BIT       INT3
      000000B0H.0 SFRSYM    DATA     BIT       INT4
      000000C3H   SFRSYM    DATA     BYTE      IAP_ADDRH
      00000090H.0 SFRSYM    DATA     BIT       RXD2
      00000090H.1 SFRSYM    DATA     BIT       TXD2
      000000B8H.4 SFRSYM    DATA     BIT       PS
      00000081H   SFRSYM    DATA     BYTE      SP
      000000D9H   SFRSYM    DATA     BYTE      CMOD
      000000D8H   SFRSYM    DATA     BYTE      CCON
      000000C4H   SFRSYM    DATA     BYTE      IAP_ADDRL
      000000D0H.2 SFRSYM    DATA     BIT       OV
      000000B8H.7 SFRSYM    DATA     BIT       PPCA
      0000009EH   SFRSYM    DATA     BYTE      LIRTRIM
      000000E6H   SFRSYM    DATA     BYTE      CMPCR1
      000000B0H.6 SFRSYM    DATA     BIT       WR
      000000E7H   SFRSYM    DATA     BYTE      CMPCR2
      000000A8H.6 SFRSYM    DATA     BIT       ELVD
      00000080H.0 SFRSYM    DATA     BIT       P00
      00000090H.0 SFRSYM    DATA     BIT       P10
      00000080H.1 SFRSYM    DATA     BIT       P01
      000000BCH   SFRSYM    DATA     BYTE      ADC_CONTR
      00000099H   SFRSYM    DATA     BYTE      SBUF
      00000087H   SFRSYM    DATA     BYTE      PCON
      000000A0H.0 SFRSYM    DATA     BIT       P20
      00000090H.1 SFRSYM    DATA     BIT       P11
      00000080H.2 SFRSYM    DATA     BIT       P02
      000000B0H.0 SFRSYM    DATA     BIT       P30
      000000A0H.1 SFRSYM    DATA     BIT       P21
      00000090H.2 SFRSYM    DATA     BIT       P12
      00000080H.3 SFRSYM    DATA     BIT       P03
      000000F5H   SFRSYM    DATA     BYTE      IAP_TPS
      000000C0H.0 SFRSYM    DATA     BIT       P40
      000000B0H.1 SFRSYM    DATA     BIT       P31
      000000A0H.2 SFRSYM    DATA     BIT       P22
      00000090H.3 SFRSYM    DATA     BIT       P13
      00000080H.4 SFRSYM    DATA     BIT       P04
      00000098H   SFRSYM    DATA     BYTE      SCON
      000000C8H.0 SFRSYM    DATA     BIT       P50
      000000C0H.1 SFRSYM    DATA     BIT       P41
      000000B0H.2 SFRSYM    DATA     BIT       P32
      000000A0H.3 SFRSYM    DATA     BIT       P23
      00000090H.4 SFRSYM    DATA     BIT       P14
      00000080H.5 SFRSYM    DATA     BIT       P05
      00000089H   SFRSYM    DATA     BYTE      TMOD
LX51 LINKER/LOCATER V4.66.93.0                                                        06/10/2021  10:13:51  PAGE 36


      00000088H   SFRSYM    DATA     BYTE      TCON
      000000E8H.0 SFRSYM    DATA     BIT       P60
      000000C8H.1 SFRSYM    DATA     BIT       P51
      000000C0H.2 SFRSYM    DATA     BIT       P42
      000000B0H.3 SFRSYM    DATA     BIT       P33
      000000A0H.4 SFRSYM    DATA     BIT       P24
      00000090H.5 SFRSYM    DATA     BIT       P15
      00000080H.6 SFRSYM    DATA     BIT       P06
      000000F8H.0 SFRSYM    DATA     BIT       P70
      000000E8H.1 SFRSYM    DATA     BIT       P61
      000000C8H.2 SFRSYM    DATA     BIT       P52
      000000C0H.3 SFRSYM    DATA     BIT       P43
      000000B0H.4 SFRSYM    DATA     BIT       P34
      000000A0H.5 SFRSYM    DATA     BIT       P25
      00000090H.6 SFRSYM    DATA     BIT       P16
      00000080H.7 SFRSYM    DATA     BIT       P07
      000000B8H.6 SFRSYM    DATA     BIT       PLVD
      000000F8H.1 SFRSYM    DATA     BIT       P71
      000000E8H.2 SFRSYM    DATA     BIT       P62
      000000C8H.3 SFRSYM    DATA     BIT       P53
      000000C0H.4 SFRSYM    DATA     BIT       P44
      000000B0H.5 SFRSYM    DATA     BIT       P35
      000000A0H.6 SFRSYM    DATA     BIT       P26
      00000090H.7 SFRSYM    DATA     BIT       P17
      000000F8H.2 SFRSYM    DATA     BIT       P72
      000000E8H.3 SFRSYM    DATA     BIT       P63
      000000C8H.4 SFRSYM    DATA     BIT       P54
      000000C0H.5 SFRSYM    DATA     BIT       P45
      000000B0H.6 SFRSYM    DATA     BIT       P36
      000000A0H.7 SFRSYM    DATA     BIT       P27
      000000F8H.3 SFRSYM    DATA     BIT       P73
      000000E8H.4 SFRSYM    DATA     BIT       P64
      000000C8H.5 SFRSYM    DATA     BIT       P55
      000000C0H.6 SFRSYM    DATA     BIT       P46
      000000B0H.7 SFRSYM    DATA     BIT       P37
      000000F8H.4 SFRSYM    DATA     BIT       P74
      000000E8H.5 SFRSYM    DATA     BIT       P65
      000000C8H.6 SFRSYM    DATA     BIT       P56
      000000C0H.7 SFRSYM    DATA     BIT       P47
      000000F8H.5 SFRSYM    DATA     BIT       P75
      000000E8H.6 SFRSYM    DATA     BIT       P66
      000000C8H.7 SFRSYM    DATA     BIT       P57
      000000F8H.6 SFRSYM    DATA     BIT       P76
      000000E8H.7 SFRSYM    DATA     BIT       P67
      000000F8H.7 SFRSYM    DATA     BIT       P77
      00000088H.1 SFRSYM    DATA     BIT       IE0
      000000A1H   SFRSYM    DATA     BYTE      BUS_SPEED
      00000088H.3 SFRSYM    DATA     BIT       IE1
      000000AFH   SFRSYM    DATA     BYTE      IE2
      000000F0H   SFRSYM    DATA     BYTE      B
      0000008EH   SFRSYM    DATA     BYTE      AUXR
      000000C7H   SFRSYM    DATA     BYTE      IAP_CONTR
      000000F6H   SFRSYM    DATA     BYTE      PWMCFG
      000000E0H   SFRSYM    DATA     BYTE      ACC
      000000A8H.1 SFRSYM    DATA     BIT       ET0
      000000A8H.3 SFRSYM    DATA     BIT       ET1
      00000088H.5 SFRSYM    DATA     BIT       TF0
      00000088H.7 SFRSYM    DATA     BIT       TF1
      000000FFH   SFRSYM    DATA     BYTE      RSTCFG
      000000B5H   SFRSYM    DATA     BYTE      IP2
      00000098H.2 SFRSYM    DATA     BIT       RB8
      000000DFH   SFRSYM    DATA     BYTE      IP3
      0000008CH   SFRSYM    DATA     BYTE      TH0
      000000A8H.0 SFRSYM    DATA     BIT       EX0
      00000088H.0 SFRSYM    DATA     BIT       IT0
LX51 LINKER/LOCATER V4.66.93.0                                                        06/10/2021  10:13:51  PAGE 37


      0000008DH   SFRSYM    DATA     BYTE      TH1
      000000A8H.2 SFRSYM    DATA     BIT       EX1
      00000098H.3 SFRSYM    DATA     BIT       TB8
      00000088H.2 SFRSYM    DATA     BIT       IT1
      000000D6H   SFRSYM    DATA     BYTE      TH2
      000000D6H   SFRSYM    DATA     BYTE      T2H
      000000D0H.0 SFRSYM    DATA     BIT       P
      000000D4H   SFRSYM    DATA     BYTE      TH3
      000000D4H   SFRSYM    DATA     BYTE      T3H
      00000098H.7 SFRSYM    DATA     BIT       SM0
      000000D2H   SFRSYM    DATA     BYTE      TH4
      000000D2H   SFRSYM    DATA     BYTE      T4H
      0000008AH   SFRSYM    DATA     BYTE      TL0
      00000098H.6 SFRSYM    DATA     BIT       SM1
      0000008BH   SFRSYM    DATA     BYTE      TL1
      00000098H.5 SFRSYM    DATA     BIT       SM2
      000000D7H   SFRSYM    DATA     BYTE      TL2
      000000D7H   SFRSYM    DATA     BYTE      T2L
      000000D5H   SFRSYM    DATA     BYTE      TL3
      000000D5H   SFRSYM    DATA     BYTE      T3L
      000000D3H   SFRSYM    DATA     BYTE      TL4
      000000D3H   SFRSYM    DATA     BYTE      T4L
      000000B8H.1 SFRSYM    DATA     BIT       PT0
      000000D0H.3 SFRSYM    DATA     BIT       RS0
      000000B8H.3 SFRSYM    DATA     BIT       PT1
      00000088H.4 SFRSYM    DATA     BIT       TR0
      000000D0H.4 SFRSYM    DATA     BIT       RS1
      000000C2H   SFRSYM    DATA     BYTE      IAP_DATA
      00000088H.6 SFRSYM    DATA     BIT       TR1
      000000C1H   SFRSYM    DATA     BYTE      WDT_CONTR
      000000B8H.0 SFRSYM    DATA     BIT       PX0
      000000B8H.2 SFRSYM    DATA     BIT       PX1
      0000009FH   SFRSYM    DATA     BYTE      IRTRIM
      000000F2H   SFRSYM    DATA     BYTE      PCA_PWM0
      000000F3H   SFRSYM    DATA     BYTE      PCA_PWM1
      000000F4H   SFRSYM    DATA     BYTE      PCA_PWM2
      00000083H   SFRSYM    DATA     BYTE      DPH
      000000D1H   SFRSYM    DATA     BYTE      T4T3M
      000000BEH   SFRSYM    DATA     BYTE      ADC_RESL
      00000082H   SFRSYM    DATA     BYTE      DPL
      000000CDH   SFRSYM    DATA     BYTE      SPSTAT
      000000B7H   SFRSYM    DATA     BYTE      IPH
      000000F1H   SFRSYM    DATA     BYTE      PWMSET
      0000009BH   SFRSYM    DATA     BYTE      S2BUF
      000000ADH   SFRSYM    DATA     BYTE      S3BUF
      00000098H.4 SFRSYM    DATA     BIT       REN
      00000085H   SFRSYM    DATA     BYTE      S4BUF
      0000009AH   SFRSYM    DATA     BYTE      S2CON
      000000E3H   SFRSYM    DATA     BYTE      DPS
      000000ACH   SFRSYM    DATA     BYTE      S3CON
      00000084H   SFRSYM    DATA     BYTE      S4CON
      000000EFH   SFRSYM    DATA     BYTE      AUXINTIF
      000000B9H   SFRSYM    DATA     BYTE      SADEN
      000000B0H.0 SFRSYM    DATA     BIT       RXD
      000000A9H   SFRSYM    DATA     BYTE      SADDR
      000000B0H.1 SFRSYM    DATA     BIT       TXD
      000000F0H.0 SFRSYM    DATA     BIT       B0
      000000F0H.1 SFRSYM    DATA     BIT       B1
      000000C6H   SFRSYM    DATA     BYTE      IAP_TRIG
      000000A2H   SFRSYM    DATA     BYTE      AUXR1
      000000F0H.2 SFRSYM    DATA     BIT       B2
      000000F0H.3 SFRSYM    DATA     BIT       B3
      000000F0H.4 SFRSYM    DATA     BIT       B4
      000000D0H.5 SFRSYM    DATA     BIT       F0
      0000009DH   SFRSYM    DATA     BYTE      IRCBAND
LX51 LINKER/LOCATER V4.66.93.0                                                        06/10/2021  10:13:51  PAGE 38


      000000F0H.5 SFRSYM    DATA     BIT       B5
      000000D0H.1 SFRSYM    DATA     BIT       F1
      0000008FH   SFRSYM    DATA     BYTE      INT_CLKO
      000000F0H.6 SFRSYM    DATA     BIT       B6
      000000E0H.0 SFRSYM    DATA     BIT       ACC0
      000000F0H.7 SFRSYM    DATA     BIT       B7
      000000E0H.1 SFRSYM    DATA     BIT       ACC1
      000000E0H.2 SFRSYM    DATA     BIT       ACC2
      000000E0H.3 SFRSYM    DATA     BIT       ACC3
      000000D0H   SFRSYM    DATA     BYTE      PSW
      000000E0H.4 SFRSYM    DATA     BIT       ACC4
      000000E0H.5 SFRSYM    DATA     BIT       ACC5
      000000D8H.0 SFRSYM    DATA     BIT       CCF0
      000000E0H.6 SFRSYM    DATA     BIT       ACC6
      000000D8H.1 SFRSYM    DATA     BIT       CCF1
      000000CFH   SFRSYM    DATA     BYTE      SPDAT
      00000094H   SFRSYM    DATA     BYTE      P0M0

      01000742H   BLOCK     CODE     ---       LVL=0
      00000007H   SYMBOL    DATA     BYTE      State
      00000005H   SYMBOL    DATA     BYTE      Priority
      01000742H   LINE      CODE     ---       #23
      01000742H   LINE      CODE     ---       #24
      01000742H   LINE      CODE     ---       #25
      01000756H   LINE      CODE     ---       #26
      0100078CH   LINE      CODE     ---       #27
      0100078EH   LINE      CODE     ---       #28
      ---         BLOCKEND  ---      ---       LVL=0
      00000007H   SYMBOL    DATA     BYTE      State
      00000005H   SYMBOL    DATA     BYTE      Priority
      00000007H   SYMBOL    DATA     BYTE      State
      00000005H   SYMBOL    DATA     BYTE      Priority
      00000007H   SYMBOL    DATA     BYTE      State
      00000005H   SYMBOL    DATA     BYTE      Priority
      00000007H   SYMBOL    DATA     BYTE      State
      00000005H   SYMBOL    DATA     BYTE      Priority
      00000007H   SYMBOL    DATA     BYTE      State
      00000005H   SYMBOL    DATA     BYTE      Priority
      00000007H   SYMBOL    DATA     BYTE      State
      00000005H   SYMBOL    DATA     BYTE      Priority
      00000007H   SYMBOL    DATA     BYTE      State
      00000005H   SYMBOL    DATA     BYTE      Priority
      00000007H   SYMBOL    DATA     BYTE      State
      00000005H   SYMBOL    DATA     BYTE      Priority
      00000007H   SYMBOL    DATA     BYTE      State
      00000005H   SYMBOL    DATA     BYTE      Priority
      00000007H   SYMBOL    DATA     BYTE      State
      00000005H   SYMBOL    DATA     BYTE      Priority
      00000007H   SYMBOL    DATA     BYTE      State
      00000005H   SYMBOL    DATA     BYTE      Priority

      01000686H   BLOCK     CODE     ---       LVL=0
      00000007H   SYMBOL    DATA     BYTE      Mode
      00000005H   SYMBOL    DATA     BYTE      State
      00000003H   SYMBOL    DATA     BYTE      Priority
      01000686H   LINE      CODE     ---       #208
      01000686H   LINE      CODE     ---       #209
      01000686H   LINE      CODE     ---       #210
      01000693H   LINE      CODE     ---       #211
      01000696H   LINE      CODE     ---       #212
      0100069BH   LINE      CODE     ---       #213
      0100069BH   LINE      CODE     ---       #214
      010006ABH   LINE      CODE     ---       #215
      010006ADH   LINE      CODE     ---       #216
      010006B0H   LINE      CODE     ---       #217
LX51 LINKER/LOCATER V4.66.93.0                                                        06/10/2021  10:13:51  PAGE 39


      010006B0H   LINE      CODE     ---       #218
      010006B8H   LINE      CODE     ---       #219
      010006B8H   LINE      CODE     ---       #221
      010006F2H   LINE      CODE     ---       #222
      010006F4H   LINE      CODE     ---       #223
      ---         BLOCKEND  ---      ---       LVL=0
      00000007H   SYMBOL    DATA     BYTE      State
      00000005H   SYMBOL    DATA     BYTE      Priority
      00000007H   SYMBOL    DATA     BYTE      State
      00000005H   SYMBOL    DATA     BYTE      Priority
      00000007H   SYMBOL    DATA     BYTE      State
      00000005H   SYMBOL    DATA     BYTE      Priority
      00000007H   SYMBOL    DATA     BYTE      State
      00000005H   SYMBOL    DATA     BYTE      Priority
      00000007H   SYMBOL    DATA     BYTE      State
      00000005H   SYMBOL    DATA     BYTE      Priority
      00000007H   SYMBOL    DATA     BYTE      Channel
      00000005H   SYMBOL    DATA     BYTE      State
      00000003H   SYMBOL    DATA     BYTE      Priority
      00000007H   SYMBOL    DATA     BYTE      State
      00000005H   SYMBOL    DATA     BYTE      Priority
      00000003H   SYMBOL    DATA     BYTE      Bus_Priority
      00000007H   SYMBOL    DATA     BYTE      State
      00000005H   SYMBOL    DATA     BYTE      Priority
      00000003H   SYMBOL    DATA     BYTE      Bus_Priority
      00000007H   SYMBOL    DATA     BYTE      State
      00000005H   SYMBOL    DATA     BYTE      Priority
      00000003H   SYMBOL    DATA     BYTE      Bus_Priority
      00000007H   SYMBOL    DATA     BYTE      State
      00000005H   SYMBOL    DATA     BYTE      Priority
      00000003H   SYMBOL    DATA     BYTE      Bus_Priority
      00000007H   SYMBOL    DATA     BYTE      State
      00000005H   SYMBOL    DATA     BYTE      Priority
      00000003H   SYMBOL    DATA     BYTE      Bus_Priority
      00000007H   SYMBOL    DATA     BYTE      State
      00000005H   SYMBOL    DATA     BYTE      Priority
      00000003H   SYMBOL    DATA     BYTE      Bus_Priority
      00000007H   SYMBOL    DATA     BYTE      State
      00000005H   SYMBOL    DATA     BYTE      Priority
      00000003H   SYMBOL    DATA     BYTE      Bus_Priority
      00000007H   SYMBOL    DATA     BYTE      State
      00000005H   SYMBOL    DATA     BYTE      Priority
      00000003H   SYMBOL    DATA     BYTE      Bus_Priority
      00000007H   SYMBOL    DATA     BYTE      State
      00000005H   SYMBOL    DATA     BYTE      Priority
      00000003H   SYMBOL    DATA     BYTE      Bus_Priority
      00000007H   SYMBOL    DATA     BYTE      State
      00000005H   SYMBOL    DATA     BYTE      Priority
      00000003H   SYMBOL    DATA     BYTE      Bus_Priority
      00000007H   SYMBOL    DATA     BYTE      State
      00000005H   SYMBOL    DATA     BYTE      Priority
      00000003H   SYMBOL    DATA     BYTE      Bus_Priority
      00000007H   SYMBOL    DATA     BYTE      State
      00000005H   SYMBOL    DATA     BYTE      Priority
      00000003H   SYMBOL    DATA     BYTE      Bus_Priority
      00000007H   SYMBOL    DATA     BYTE      State
      00000005H   SYMBOL    DATA     BYTE      Priority

      ---         MODULE    ---      ---       STC8A_TIMER
      010000C6H   PUBLIC    CODE     ---       _Timer_Inilize
      000000E0H.7 SFRSYM    DATA     BIT       ACC7
      000000D8H.2 SFRSYM    DATA     BIT       CCF2
      00000093H   SFRSYM    DATA     BYTE      P0M1
      00000092H   SFRSYM    DATA     BYTE      P1M0
      000000D8H.3 SFRSYM    DATA     BIT       CCF3
LX51 LINKER/LOCATER V4.66.93.0                                                        06/10/2021  10:13:51  PAGE 40


      00000096H   SFRSYM    DATA     BYTE      P2M0
      00000091H   SFRSYM    DATA     BYTE      P1M1
      00000080H   SFRSYM    DATA     BYTE      P0
      000000B2H   SFRSYM    DATA     BYTE      P3M0
      00000095H   SFRSYM    DATA     BYTE      P2M1
      00000090H   SFRSYM    DATA     BYTE      P1
      000000B4H   SFRSYM    DATA     BYTE      P4M0
      000000B1H   SFRSYM    DATA     BYTE      P3M1
      000000A0H   SFRSYM    DATA     BYTE      P2
      000000CAH   SFRSYM    DATA     BYTE      P5M0
      000000B3H   SFRSYM    DATA     BYTE      P4M1
      000000B0H   SFRSYM    DATA     BYTE      P3
      000000ABH   SFRSYM    DATA     BYTE      WKTCH
      000000B0H.4 SFRSYM    DATA     BIT       T0
      000000D0H.6 SFRSYM    DATA     BIT       AC
      000000CCH   SFRSYM    DATA     BYTE      P6M0
      000000C9H   SFRSYM    DATA     BYTE      P5M1
      000000C0H   SFRSYM    DATA     BYTE      P4
      000000B0H.5 SFRSYM    DATA     BIT       CLKOUT0
      000000B0H.5 SFRSYM    DATA     BIT       T1
      000000E2H   SFRSYM    DATA     BYTE      P7M0
      000000CBH   SFRSYM    DATA     BYTE      P6M1
      000000C8H   SFRSYM    DATA     BYTE      P5
      000000A8H.7 SFRSYM    DATA     BIT       EA
      000000B0H.4 SFRSYM    DATA     BIT       CLKOUT1
      000000E8H   SFRSYM    DATA     BYTE      P6
      000000E1H   SFRSYM    DATA     BYTE      P7M1
      00000090H.1 SFRSYM    DATA     BIT       CCP0
      000000F8H   SFRSYM    DATA     BYTE      P7
      000000AAH   SFRSYM    DATA     BYTE      WKTCL
      00000090H.0 SFRSYM    DATA     BIT       CCP1
      000000CEH   SFRSYM    DATA     BYTE      SPCTL
      000000B0H.7 SFRSYM    DATA     BIT       CCP2
      000000D8H.7 SFRSYM    DATA     BIT       CF
      000000F9H   SFRSYM    DATA     BYTE      CH
      000000A2H   SFRSYM    DATA     BYTE      P_SW1
      000000BAH   SFRSYM    DATA     BYTE      P_SW2
      000000A8H.5 SFRSYM    DATA     BIT       EADC
      000000E5H   SFRSYM    DATA     BYTE      DPH1
      000000A8H   SFRSYM    DATA     BYTE      IE
      000000E9H   SFRSYM    DATA     BYTE      CL
      000000C5H   SFRSYM    DATA     BYTE      IAP_CMD
      000000FAH   SFRSYM    DATA     BYTE      CCAP0H
      000000FBH   SFRSYM    DATA     BYTE      CCAP1H
      000000E4H   SFRSYM    DATA     BYTE      DPL1
      000000FCH   SFRSYM    DATA     BYTE      CCAP2H
      000000BDH   SFRSYM    DATA     BYTE      ADC_RES
      000000B6H   SFRSYM    DATA     BYTE      IP2H
      000000EEH   SFRSYM    DATA     BYTE      IP3H
      000000EAH   SFRSYM    DATA     BYTE      CCAP0L
      000000D8H.6 SFRSYM    DATA     BIT       CR
      000000AEH   SFRSYM    DATA     BYTE      TA
      000000B0H.7 SFRSYM    DATA     BIT       RD
      000000EBH   SFRSYM    DATA     BYTE      CCAP1L
      000000DAH   SFRSYM    DATA     BYTE      CCAPM0
      000000ECH   SFRSYM    DATA     BYTE      CCAP2L
      000000DBH   SFRSYM    DATA     BYTE      CCAPM1
      000000A8H.4 SFRSYM    DATA     BIT       ES
      000000DCH   SFRSYM    DATA     BYTE      CCAPM2
      000000B8H.5 SFRSYM    DATA     BIT       PADC
      000000B8H   SFRSYM    DATA     BYTE      IP
      000000DEH   SFRSYM    DATA     BYTE      ADCCFG
      00000098H.0 SFRSYM    DATA     BIT       RI
      000000B0H.2 SFRSYM    DATA     BIT       INT0
      000000D0H.7 SFRSYM    DATA     BIT       CY
LX51 LINKER/LOCATER V4.66.93.0                                                        06/10/2021  10:13:51  PAGE 41


      00000098H.1 SFRSYM    DATA     BIT       TI
      000000B0H.3 SFRSYM    DATA     BIT       INT1
      000000B0H.6 SFRSYM    DATA     BIT       INT2
      000000B0H.7 SFRSYM    DATA     BIT       INT3
      000000B0H.0 SFRSYM    DATA     BIT       INT4
      000000C3H   SFRSYM    DATA     BYTE      IAP_ADDRH
      00000090H.0 SFRSYM    DATA     BIT       RXD2
      00000090H.1 SFRSYM    DATA     BIT       TXD2
      000000B8H.4 SFRSYM    DATA     BIT       PS
      00000081H   SFRSYM    DATA     BYTE      SP
      000000D9H   SFRSYM    DATA     BYTE      CMOD
      000000D8H   SFRSYM    DATA     BYTE      CCON
      000000C4H   SFRSYM    DATA     BYTE      IAP_ADDRL
      000000D0H.2 SFRSYM    DATA     BIT       OV
      000000B8H.7 SFRSYM    DATA     BIT       PPCA
      0000009EH   SFRSYM    DATA     BYTE      LIRTRIM
      000000E6H   SFRSYM    DATA     BYTE      CMPCR1
      000000B0H.6 SFRSYM    DATA     BIT       WR
      000000E7H   SFRSYM    DATA     BYTE      CMPCR2
      000000A8H.6 SFRSYM    DATA     BIT       ELVD
      00000080H.0 SFRSYM    DATA     BIT       P00
      00000090H.0 SFRSYM    DATA     BIT       P10
      00000080H.1 SFRSYM    DATA     BIT       P01
      000000BCH   SFRSYM    DATA     BYTE      ADC_CONTR
      00000099H   SFRSYM    DATA     BYTE      SBUF
      00000087H   SFRSYM    DATA     BYTE      PCON
      000000A0H.0 SFRSYM    DATA     BIT       P20
      00000090H.1 SFRSYM    DATA     BIT       P11
      00000080H.2 SFRSYM    DATA     BIT       P02
      000000B0H.0 SFRSYM    DATA     BIT       P30
      000000A0H.1 SFRSYM    DATA     BIT       P21
      00000090H.2 SFRSYM    DATA     BIT       P12
      00000080H.3 SFRSYM    DATA     BIT       P03
      000000F5H   SFRSYM    DATA     BYTE      IAP_TPS
      000000C0H.0 SFRSYM    DATA     BIT       P40
      000000B0H.1 SFRSYM    DATA     BIT       P31
      000000A0H.2 SFRSYM    DATA     BIT       P22
      00000090H.3 SFRSYM    DATA     BIT       P13
      00000080H.4 SFRSYM    DATA     BIT       P04
      00000098H   SFRSYM    DATA     BYTE      SCON
      000000C8H.0 SFRSYM    DATA     BIT       P50
      000000C0H.1 SFRSYM    DATA     BIT       P41
      000000B0H.2 SFRSYM    DATA     BIT       P32
      000000A0H.3 SFRSYM    DATA     BIT       P23
      00000090H.4 SFRSYM    DATA     BIT       P14
      00000080H.5 SFRSYM    DATA     BIT       P05
      00000089H   SFRSYM    DATA     BYTE      TMOD
      00000088H   SFRSYM    DATA     BYTE      TCON
      000000E8H.0 SFRSYM    DATA     BIT       P60
      000000C8H.1 SFRSYM    DATA     BIT       P51
      000000C0H.2 SFRSYM    DATA     BIT       P42
      000000B0H.3 SFRSYM    DATA     BIT       P33
      000000A0H.4 SFRSYM    DATA     BIT       P24
      00000090H.5 SFRSYM    DATA     BIT       P15
      00000080H.6 SFRSYM    DATA     BIT       P06
      000000F8H.0 SFRSYM    DATA     BIT       P70
      000000E8H.1 SFRSYM    DATA     BIT       P61
      000000C8H.2 SFRSYM    DATA     BIT       P52
      000000C0H.3 SFRSYM    DATA     BIT       P43
      000000B0H.4 SFRSYM    DATA     BIT       P34
      000000A0H.5 SFRSYM    DATA     BIT       P25
      00000090H.6 SFRSYM    DATA     BIT       P16
      00000080H.7 SFRSYM    DATA     BIT       P07
      000000B8H.6 SFRSYM    DATA     BIT       PLVD
      000000F8H.1 SFRSYM    DATA     BIT       P71
LX51 LINKER/LOCATER V4.66.93.0                                                        06/10/2021  10:13:51  PAGE 42


      000000E8H.2 SFRSYM    DATA     BIT       P62
      000000C8H.3 SFRSYM    DATA     BIT       P53
      000000C0H.4 SFRSYM    DATA     BIT       P44
      000000B0H.5 SFRSYM    DATA     BIT       P35
      000000A0H.6 SFRSYM    DATA     BIT       P26
      00000090H.7 SFRSYM    DATA     BIT       P17
      000000F8H.2 SFRSYM    DATA     BIT       P72
      000000E8H.3 SFRSYM    DATA     BIT       P63
      000000C8H.4 SFRSYM    DATA     BIT       P54
      000000C0H.5 SFRSYM    DATA     BIT       P45
      000000B0H.6 SFRSYM    DATA     BIT       P36
      000000A0H.7 SFRSYM    DATA     BIT       P27
      000000F8H.3 SFRSYM    DATA     BIT       P73
      000000E8H.4 SFRSYM    DATA     BIT       P64
      000000C8H.5 SFRSYM    DATA     BIT       P55
      000000C0H.6 SFRSYM    DATA     BIT       P46
      000000B0H.7 SFRSYM    DATA     BIT       P37
      000000F8H.4 SFRSYM    DATA     BIT       P74
      000000E8H.5 SFRSYM    DATA     BIT       P65
      000000C8H.6 SFRSYM    DATA     BIT       P56
      000000C0H.7 SFRSYM    DATA     BIT       P47
      000000F8H.5 SFRSYM    DATA     BIT       P75
      000000E8H.6 SFRSYM    DATA     BIT       P66
      000000C8H.7 SFRSYM    DATA     BIT       P57
      000000F8H.6 SFRSYM    DATA     BIT       P76
      000000E8H.7 SFRSYM    DATA     BIT       P67
      000000F8H.7 SFRSYM    DATA     BIT       P77
      00000088H.1 SFRSYM    DATA     BIT       IE0
      000000A1H   SFRSYM    DATA     BYTE      BUS_SPEED
      00000088H.3 SFRSYM    DATA     BIT       IE1
      000000AFH   SFRSYM    DATA     BYTE      IE2
      000000F0H   SFRSYM    DATA     BYTE      B
      0000008EH   SFRSYM    DATA     BYTE      AUXR
      000000C7H   SFRSYM    DATA     BYTE      IAP_CONTR
      000000F6H   SFRSYM    DATA     BYTE      PWMCFG
      000000E0H   SFRSYM    DATA     BYTE      ACC
      000000A8H.1 SFRSYM    DATA     BIT       ET0
      000000A8H.3 SFRSYM    DATA     BIT       ET1
      00000088H.5 SFRSYM    DATA     BIT       TF0
      00000088H.7 SFRSYM    DATA     BIT       TF1
      000000FFH   SFRSYM    DATA     BYTE      RSTCFG
      000000B5H   SFRSYM    DATA     BYTE      IP2
      00000098H.2 SFRSYM    DATA     BIT       RB8
      000000DFH   SFRSYM    DATA     BYTE      IP3
      0000008CH   SFRSYM    DATA     BYTE      TH0
      000000A8H.0 SFRSYM    DATA     BIT       EX0
      00000088H.0 SFRSYM    DATA     BIT       IT0
      0000008DH   SFRSYM    DATA     BYTE      TH1
      000000A8H.2 SFRSYM    DATA     BIT       EX1
      00000098H.3 SFRSYM    DATA     BIT       TB8
      00000088H.2 SFRSYM    DATA     BIT       IT1
      000000D6H   SFRSYM    DATA     BYTE      TH2
      000000D6H   SFRSYM    DATA     BYTE      T2H
      000000D0H.0 SFRSYM    DATA     BIT       P
      000000D4H   SFRSYM    DATA     BYTE      TH3
      000000D4H   SFRSYM    DATA     BYTE      T3H
      00000098H.7 SFRSYM    DATA     BIT       SM0
      000000D2H   SFRSYM    DATA     BYTE      TH4
      000000D2H   SFRSYM    DATA     BYTE      T4H
      0000008AH   SFRSYM    DATA     BYTE      TL0
      00000098H.6 SFRSYM    DATA     BIT       SM1
      0000008BH   SFRSYM    DATA     BYTE      TL1
      00000098H.5 SFRSYM    DATA     BIT       SM2
      000000D7H   SFRSYM    DATA     BYTE      TL2
      000000D7H   SFRSYM    DATA     BYTE      T2L
LX51 LINKER/LOCATER V4.66.93.0                                                        06/10/2021  10:13:51  PAGE 43


      000000D5H   SFRSYM    DATA     BYTE      TL3
      000000D5H   SFRSYM    DATA     BYTE      T3L
      000000D3H   SFRSYM    DATA     BYTE      TL4
      000000D3H   SFRSYM    DATA     BYTE      T4L
      000000B8H.1 SFRSYM    DATA     BIT       PT0
      000000D0H.3 SFRSYM    DATA     BIT       RS0
      000000B8H.3 SFRSYM    DATA     BIT       PT1
      00000088H.4 SFRSYM    DATA     BIT       TR0
      000000D0H.4 SFRSYM    DATA     BIT       RS1
      000000C2H   SFRSYM    DATA     BYTE      IAP_DATA
      00000088H.6 SFRSYM    DATA     BIT       TR1
      000000C1H   SFRSYM    DATA     BYTE      WDT_CONTR
      000000B8H.0 SFRSYM    DATA     BIT       PX0
      000000B8H.2 SFRSYM    DATA     BIT       PX1
      0000009FH   SFRSYM    DATA     BYTE      IRTRIM
      000000F2H   SFRSYM    DATA     BYTE      PCA_PWM0
      000000F3H   SFRSYM    DATA     BYTE      PCA_PWM1
      000000F4H   SFRSYM    DATA     BYTE      PCA_PWM2
      00000083H   SFRSYM    DATA     BYTE      DPH
      000000D1H   SFRSYM    DATA     BYTE      T4T3M
      000000BEH   SFRSYM    DATA     BYTE      ADC_RESL
      00000082H   SFRSYM    DATA     BYTE      DPL
      000000CDH   SFRSYM    DATA     BYTE      SPSTAT
      000000B7H   SFRSYM    DATA     BYTE      IPH
      000000F1H   SFRSYM    DATA     BYTE      PWMSET
      0000009BH   SFRSYM    DATA     BYTE      S2BUF
      000000ADH   SFRSYM    DATA     BYTE      S3BUF
      00000098H.4 SFRSYM    DATA     BIT       REN
      00000085H   SFRSYM    DATA     BYTE      S4BUF
      0000009AH   SFRSYM    DATA     BYTE      S2CON
      000000E3H   SFRSYM    DATA     BYTE      DPS
      000000ACH   SFRSYM    DATA     BYTE      S3CON
      00000084H   SFRSYM    DATA     BYTE      S4CON
      000000EFH   SFRSYM    DATA     BYTE      AUXINTIF
      000000B9H   SFRSYM    DATA     BYTE      SADEN
      000000B0H.0 SFRSYM    DATA     BIT       RXD
      000000A9H   SFRSYM    DATA     BYTE      SADDR
      000000B0H.1 SFRSYM    DATA     BIT       TXD
      000000F0H.0 SFRSYM    DATA     BIT       B0
      000000F0H.1 SFRSYM    DATA     BIT       B1
      000000C6H   SFRSYM    DATA     BYTE      IAP_TRIG
      000000A2H   SFRSYM    DATA     BYTE      AUXR1
      000000F0H.2 SFRSYM    DATA     BIT       B2
      000000F0H.3 SFRSYM    DATA     BIT       B3
      000000F0H.4 SFRSYM    DATA     BIT       B4
      000000D0H.5 SFRSYM    DATA     BIT       F0
      0000009DH   SFRSYM    DATA     BYTE      IRCBAND
      000000F0H.5 SFRSYM    DATA     BIT       B5
      000000D0H.1 SFRSYM    DATA     BIT       F1
      0000008FH   SFRSYM    DATA     BYTE      INT_CLKO
      000000F0H.6 SFRSYM    DATA     BIT       B6
      000000E0H.0 SFRSYM    DATA     BIT       ACC0
      000000F0H.7 SFRSYM    DATA     BIT       B7
      000000E0H.1 SFRSYM    DATA     BIT       ACC1
      000000E0H.2 SFRSYM    DATA     BIT       ACC2
      000000E0H.3 SFRSYM    DATA     BIT       ACC3
      000000D0H   SFRSYM    DATA     BYTE      PSW
      000000E0H.4 SFRSYM    DATA     BIT       ACC4
      000000E0H.5 SFRSYM    DATA     BIT       ACC5
      000000D8H.0 SFRSYM    DATA     BIT       CCF0
      000000E0H.6 SFRSYM    DATA     BIT       ACC6
      000000D8H.1 SFRSYM    DATA     BIT       CCF1
      000000CFH   SFRSYM    DATA     BYTE      SPDAT
      00000094H   SFRSYM    DATA     BYTE      P0M0

LX51 LINKER/LOCATER V4.66.93.0                                                        06/10/2021  10:13:51  PAGE 44


      010000C6H   BLOCK     CODE     ---       LVL=0
      00000005H   SYMBOL    DATA     BYTE      TIM
      00000001H   SYMBOL    DATA     ---       TIMx
      010000C6H   LINE      CODE     ---       #22
      010000C8H   LINE      CODE     ---       #23
      010000C8H   LINE      CODE     ---       #24
      010000CBH   LINE      CODE     ---       #25
      010000CBH   LINE      CODE     ---       #26
      010000CDH   LINE      CODE     ---       #27
      010000DDH   LINE      CODE     ---       #28
      010000E4H   LINE      CODE     ---       #29
      010000F7H   LINE      CODE     ---       #30
      01000118H   LINE      CODE     ---       #31
      01000126H   LINE      CODE     ---       #32
      01000138H   LINE      CODE     ---       #33
      01000146H   LINE      CODE     ---       #34
      01000149H   LINE      CODE     ---       #35
      01000149H   LINE      CODE     ---       #37
      01000151H   LINE      CODE     ---       #38
      01000151H   LINE      CODE     ---       #39
      01000153H   LINE      CODE     ---       #40
      01000163H   LINE      CODE     ---       #41
      0100016FH   LINE      CODE     ---       #42
      01000182H   LINE      CODE     ---       #43
      010001A3H   LINE      CODE     ---       #44
      010001B3H   LINE      CODE     ---       #45
      010001C5H   LINE      CODE     ---       #46
      010001D3H   LINE      CODE     ---       #47
      010001D6H   LINE      CODE     ---       #48
      010001D6H   LINE      CODE     ---       #50
      010001DBH   LINE      CODE     ---       #51
      010001DBH   LINE      CODE     ---       #52
      010001DEH   LINE      CODE     ---       #53
      01000204H   LINE      CODE     ---       #54
      01000216H   LINE      CODE     ---       #56
      01000228H   LINE      CODE     ---       #57
      01000239H   LINE      CODE     ---       #58
      0100023CH   LINE      CODE     ---       #59
      0100023CH   LINE      CODE     ---       #61
      01000241H   LINE      CODE     ---       #62
      01000241H   LINE      CODE     ---       #63
      01000244H   LINE      CODE     ---       #64
      01000257H   LINE      CODE     ---       #65
      01000278H   LINE      CODE     ---       #66
      01000286H   LINE      CODE     ---       #68
      01000298H   LINE      CODE     ---       #69
      010002A8H   LINE      CODE     ---       #70
      010002AAH   LINE      CODE     ---       #71
      010002AAH   LINE      CODE     ---       #73
      010002AFH   LINE      CODE     ---       #74
      010002AFH   LINE      CODE     ---       #75
      010002B2H   LINE      CODE     ---       #76
      010002C7H   LINE      CODE     ---       #77
      010002EEH   LINE      CODE     ---       #78
      010002FFH   LINE      CODE     ---       #80
      0100030FH   LINE      CODE     ---       #81
      01000323H   LINE      CODE     ---       #82
      01000326H   LINE      CODE     ---       #83
      01000326H   LINE      CODE     ---       #84
      01000328H   LINE      CODE     ---       #85
      ---         BLOCKEND  ---      ---       LVL=0

      ---         MODULE    ---      ---       STC8A_TIMER_ISR
      01000062H   PUBLIC    CODE     ---       Timer4_ISR_Handler
      01000061H   PUBLIC    CODE     ---       Timer3_ISR_Handler
LX51 LINKER/LOCATER V4.66.93.0                                                        06/10/2021  10:13:51  PAGE 45


      01000060H   PUBLIC    CODE     ---       Timer2_ISR_Handler
      0100001AH   PUBLIC    CODE     ---       Timer1_ISR_Handler
      01000008H   PUBLIC    CODE     ---       Timer0_ISR_Handler
      000000E0H.7 SFRSYM    DATA     BIT       ACC7
      000000D8H.2 SFRSYM    DATA     BIT       CCF2
      00000093H   SFRSYM    DATA     BYTE      P0M1
      00000092H   SFRSYM    DATA     BYTE      P1M0
      000000D8H.3 SFRSYM    DATA     BIT       CCF3
      00000096H   SFRSYM    DATA     BYTE      P2M0
      00000091H   SFRSYM    DATA     BYTE      P1M1
      00000080H   SFRSYM    DATA     BYTE      P0
      000000B2H   SFRSYM    DATA     BYTE      P3M0
      00000095H   SFRSYM    DATA     BYTE      P2M1
      00000090H   SFRSYM    DATA     BYTE      P1
      000000B4H   SFRSYM    DATA     BYTE      P4M0
      000000B1H   SFRSYM    DATA     BYTE      P3M1
      000000A0H   SFRSYM    DATA     BYTE      P2
      000000CAH   SFRSYM    DATA     BYTE      P5M0
      000000B3H   SFRSYM    DATA     BYTE      P4M1
      000000B0H   SFRSYM    DATA     BYTE      P3
      000000ABH   SFRSYM    DATA     BYTE      WKTCH
      000000B0H.4 SFRSYM    DATA     BIT       T0
      000000D0H.6 SFRSYM    DATA     BIT       AC
      000000CCH   SFRSYM    DATA     BYTE      P6M0
      000000C9H   SFRSYM    DATA     BYTE      P5M1
      000000C0H   SFRSYM    DATA     BYTE      P4
      000000B0H.5 SFRSYM    DATA     BIT       CLKOUT0
      000000B0H.5 SFRSYM    DATA     BIT       T1
      000000E2H   SFRSYM    DATA     BYTE      P7M0
      000000CBH   SFRSYM    DATA     BYTE      P6M1
      000000C8H   SFRSYM    DATA     BYTE      P5
      000000A8H.7 SFRSYM    DATA     BIT       EA
      000000B0H.4 SFRSYM    DATA     BIT       CLKOUT1
      000000E8H   SFRSYM    DATA     BYTE      P6
      000000E1H   SFRSYM    DATA     BYTE      P7M1
      00000090H.1 SFRSYM    DATA     BIT       CCP0
      000000F8H   SFRSYM    DATA     BYTE      P7
      000000AAH   SFRSYM    DATA     BYTE      WKTCL
      00000090H.0 SFRSYM    DATA     BIT       CCP1
      000000CEH   SFRSYM    DATA     BYTE      SPCTL
      000000B0H.7 SFRSYM    DATA     BIT       CCP2
      000000D8H.7 SFRSYM    DATA     BIT       CF
      000000F9H   SFRSYM    DATA     BYTE      CH
      000000A2H   SFRSYM    DATA     BYTE      P_SW1
      000000BAH   SFRSYM    DATA     BYTE      P_SW2
      000000A8H.5 SFRSYM    DATA     BIT       EADC
      000000E5H   SFRSYM    DATA     BYTE      DPH1
      000000A8H   SFRSYM    DATA     BYTE      IE
      000000E9H   SFRSYM    DATA     BYTE      CL
      000000C5H   SFRSYM    DATA     BYTE      IAP_CMD
      000000FAH   SFRSYM    DATA     BYTE      CCAP0H
      000000FBH   SFRSYM    DATA     BYTE      CCAP1H
      000000E4H   SFRSYM    DATA     BYTE      DPL1
      000000FCH   SFRSYM    DATA     BYTE      CCAP2H
      000000BDH   SFRSYM    DATA     BYTE      ADC_RES
      000000B6H   SFRSYM    DATA     BYTE      IP2H
      000000EEH   SFRSYM    DATA     BYTE      IP3H
      000000EAH   SFRSYM    DATA     BYTE      CCAP0L
      000000D8H.6 SFRSYM    DATA     BIT       CR
      000000AEH   SFRSYM    DATA     BYTE      TA
      000000B0H.7 SFRSYM    DATA     BIT       RD
      000000EBH   SFRSYM    DATA     BYTE      CCAP1L
      000000DAH   SFRSYM    DATA     BYTE      CCAPM0
      000000ECH   SFRSYM    DATA     BYTE      CCAP2L
      000000DBH   SFRSYM    DATA     BYTE      CCAPM1
LX51 LINKER/LOCATER V4.66.93.0                                                        06/10/2021  10:13:51  PAGE 46


      000000A8H.4 SFRSYM    DATA     BIT       ES
      000000DCH   SFRSYM    DATA     BYTE      CCAPM2
      000000B8H.5 SFRSYM    DATA     BIT       PADC
      000000B8H   SFRSYM    DATA     BYTE      IP
      000000DEH   SFRSYM    DATA     BYTE      ADCCFG
      00000098H.0 SFRSYM    DATA     BIT       RI
      000000B0H.2 SFRSYM    DATA     BIT       INT0
      000000D0H.7 SFRSYM    DATA     BIT       CY
      00000098H.1 SFRSYM    DATA     BIT       TI
      000000B0H.3 SFRSYM    DATA     BIT       INT1
      000000B0H.6 SFRSYM    DATA     BIT       INT2
      000000B0H.7 SFRSYM    DATA     BIT       INT3
      000000B0H.0 SFRSYM    DATA     BIT       INT4
      000000C3H   SFRSYM    DATA     BYTE      IAP_ADDRH
      00000090H.0 SFRSYM    DATA     BIT       RXD2
      00000090H.1 SFRSYM    DATA     BIT       TXD2
      000000B8H.4 SFRSYM    DATA     BIT       PS
      00000081H   SFRSYM    DATA     BYTE      SP
      000000D9H   SFRSYM    DATA     BYTE      CMOD
      000000D8H   SFRSYM    DATA     BYTE      CCON
      000000C4H   SFRSYM    DATA     BYTE      IAP_ADDRL
      000000D0H.2 SFRSYM    DATA     BIT       OV
      000000B8H.7 SFRSYM    DATA     BIT       PPCA
      0000009EH   SFRSYM    DATA     BYTE      LIRTRIM
      000000E6H   SFRSYM    DATA     BYTE      CMPCR1
      000000B0H.6 SFRSYM    DATA     BIT       WR
      000000E7H   SFRSYM    DATA     BYTE      CMPCR2
      000000A8H.6 SFRSYM    DATA     BIT       ELVD
      00000080H.0 SFRSYM    DATA     BIT       P00
      00000090H.0 SFRSYM    DATA     BIT       P10
      00000080H.1 SFRSYM    DATA     BIT       P01
      000000BCH   SFRSYM    DATA     BYTE      ADC_CONTR
      00000099H   SFRSYM    DATA     BYTE      SBUF
      00000087H   SFRSYM    DATA     BYTE      PCON
      000000A0H.0 SFRSYM    DATA     BIT       P20
      00000090H.1 SFRSYM    DATA     BIT       P11
      00000080H.2 SFRSYM    DATA     BIT       P02
      000000B0H.0 SFRSYM    DATA     BIT       P30
      000000A0H.1 SFRSYM    DATA     BIT       P21
      00000090H.2 SFRSYM    DATA     BIT       P12
      00000080H.3 SFRSYM    DATA     BIT       P03
      000000F5H   SFRSYM    DATA     BYTE      IAP_TPS
      000000C0H.0 SFRSYM    DATA     BIT       P40
      000000B0H.1 SFRSYM    DATA     BIT       P31
      000000A0H.2 SFRSYM    DATA     BIT       P22
      00000090H.3 SFRSYM    DATA     BIT       P13
      00000080H.4 SFRSYM    DATA     BIT       P04
      00000098H   SFRSYM    DATA     BYTE      SCON
      000000C8H.0 SFRSYM    DATA     BIT       P50
      000000C0H.1 SFRSYM    DATA     BIT       P41
      000000B0H.2 SFRSYM    DATA     BIT       P32
      000000A0H.3 SFRSYM    DATA     BIT       P23
      00000090H.4 SFRSYM    DATA     BIT       P14
      00000080H.5 SFRSYM    DATA     BIT       P05
      00000089H   SFRSYM    DATA     BYTE      TMOD
      00000088H   SFRSYM    DATA     BYTE      TCON
      000000E8H.0 SFRSYM    DATA     BIT       P60
      000000C8H.1 SFRSYM    DATA     BIT       P51
      000000C0H.2 SFRSYM    DATA     BIT       P42
      000000B0H.3 SFRSYM    DATA     BIT       P33
      000000A0H.4 SFRSYM    DATA     BIT       P24
      00000090H.5 SFRSYM    DATA     BIT       P15
      00000080H.6 SFRSYM    DATA     BIT       P06
      000000F8H.0 SFRSYM    DATA     BIT       P70
      000000E8H.1 SFRSYM    DATA     BIT       P61
LX51 LINKER/LOCATER V4.66.93.0                                                        06/10/2021  10:13:51  PAGE 47


      000000C8H.2 SFRSYM    DATA     BIT       P52
      000000C0H.3 SFRSYM    DATA     BIT       P43
      000000B0H.4 SFRSYM    DATA     BIT       P34
      000000A0H.5 SFRSYM    DATA     BIT       P25
      00000090H.6 SFRSYM    DATA     BIT       P16
      00000080H.7 SFRSYM    DATA     BIT       P07
      000000B8H.6 SFRSYM    DATA     BIT       PLVD
      000000F8H.1 SFRSYM    DATA     BIT       P71
      000000E8H.2 SFRSYM    DATA     BIT       P62
      000000C8H.3 SFRSYM    DATA     BIT       P53
      000000C0H.4 SFRSYM    DATA     BIT       P44
      000000B0H.5 SFRSYM    DATA     BIT       P35
      000000A0H.6 SFRSYM    DATA     BIT       P26
      00000090H.7 SFRSYM    DATA     BIT       P17
      000000F8H.2 SFRSYM    DATA     BIT       P72
      000000E8H.3 SFRSYM    DATA     BIT       P63
      000000C8H.4 SFRSYM    DATA     BIT       P54
      000000C0H.5 SFRSYM    DATA     BIT       P45
      000000B0H.6 SFRSYM    DATA     BIT       P36
      000000A0H.7 SFRSYM    DATA     BIT       P27
      000000F8H.3 SFRSYM    DATA     BIT       P73
      000000E8H.4 SFRSYM    DATA     BIT       P64
      000000C8H.5 SFRSYM    DATA     BIT       P55
      000000C0H.6 SFRSYM    DATA     BIT       P46
      000000B0H.7 SFRSYM    DATA     BIT       P37
      000000F8H.4 SFRSYM    DATA     BIT       P74
      000000E8H.5 SFRSYM    DATA     BIT       P65
      000000C8H.6 SFRSYM    DATA     BIT       P56
      000000C0H.7 SFRSYM    DATA     BIT       P47
      000000F8H.5 SFRSYM    DATA     BIT       P75
      000000E8H.6 SFRSYM    DATA     BIT       P66
      000000C8H.7 SFRSYM    DATA     BIT       P57
      000000F8H.6 SFRSYM    DATA     BIT       P76
      000000E8H.7 SFRSYM    DATA     BIT       P67
      000000F8H.7 SFRSYM    DATA     BIT       P77
      00000088H.1 SFRSYM    DATA     BIT       IE0
      000000A1H   SFRSYM    DATA     BYTE      BUS_SPEED
      00000088H.3 SFRSYM    DATA     BIT       IE1
      000000AFH   SFRSYM    DATA     BYTE      IE2
      000000F0H   SFRSYM    DATA     BYTE      B
      0000008EH   SFRSYM    DATA     BYTE      AUXR
      000000C7H   SFRSYM    DATA     BYTE      IAP_CONTR
      000000F6H   SFRSYM    DATA     BYTE      PWMCFG
      000000E0H   SFRSYM    DATA     BYTE      ACC
      000000A8H.1 SFRSYM    DATA     BIT       ET0
      000000A8H.3 SFRSYM    DATA     BIT       ET1
      00000088H.5 SFRSYM    DATA     BIT       TF0
      00000088H.7 SFRSYM    DATA     BIT       TF1
      000000FFH   SFRSYM    DATA     BYTE      RSTCFG
      000000B5H   SFRSYM    DATA     BYTE      IP2
      00000098H.2 SFRSYM    DATA     BIT       RB8
      000000DFH   SFRSYM    DATA     BYTE      IP3
      0000008CH   SFRSYM    DATA     BYTE      TH0
      000000A8H.0 SFRSYM    DATA     BIT       EX0
      00000088H.0 SFRSYM    DATA     BIT       IT0
      0000008DH   SFRSYM    DATA     BYTE      TH1
      000000A8H.2 SFRSYM    DATA     BIT       EX1
      00000098H.3 SFRSYM    DATA     BIT       TB8
      00000088H.2 SFRSYM    DATA     BIT       IT1
      000000D6H   SFRSYM    DATA     BYTE      TH2
      000000D6H   SFRSYM    DATA     BYTE      T2H
      000000D0H.0 SFRSYM    DATA     BIT       P
      000000D4H   SFRSYM    DATA     BYTE      TH3
      000000D4H   SFRSYM    DATA     BYTE      T3H
      00000098H.7 SFRSYM    DATA     BIT       SM0
LX51 LINKER/LOCATER V4.66.93.0                                                        06/10/2021  10:13:51  PAGE 48


      000000D2H   SFRSYM    DATA     BYTE      TH4
      000000D2H   SFRSYM    DATA     BYTE      T4H
      0000008AH   SFRSYM    DATA     BYTE      TL0
      00000098H.6 SFRSYM    DATA     BIT       SM1
      0000008BH   SFRSYM    DATA     BYTE      TL1
      00000098H.5 SFRSYM    DATA     BIT       SM2
      000000D7H   SFRSYM    DATA     BYTE      TL2
      000000D7H   SFRSYM    DATA     BYTE      T2L
      000000D5H   SFRSYM    DATA     BYTE      TL3
      000000D5H   SFRSYM    DATA     BYTE      T3L
      000000D3H   SFRSYM    DATA     BYTE      TL4
      000000D3H   SFRSYM    DATA     BYTE      T4L
      000000B8H.1 SFRSYM    DATA     BIT       PT0
      000000D0H.3 SFRSYM    DATA     BIT       RS0
      000000B8H.3 SFRSYM    DATA     BIT       PT1
      00000088H.4 SFRSYM    DATA     BIT       TR0
      000000D0H.4 SFRSYM    DATA     BIT       RS1
      000000C2H   SFRSYM    DATA     BYTE      IAP_DATA
      00000088H.6 SFRSYM    DATA     BIT       TR1
      000000C1H   SFRSYM    DATA     BYTE      WDT_CONTR
      000000B8H.0 SFRSYM    DATA     BIT       PX0
      000000B8H.2 SFRSYM    DATA     BIT       PX1
      0000009FH   SFRSYM    DATA     BYTE      IRTRIM
      000000F2H   SFRSYM    DATA     BYTE      PCA_PWM0
      000000F3H   SFRSYM    DATA     BYTE      PCA_PWM1
      000000F4H   SFRSYM    DATA     BYTE      PCA_PWM2
      00000083H   SFRSYM    DATA     BYTE      DPH
      000000D1H   SFRSYM    DATA     BYTE      T4T3M
      000000BEH   SFRSYM    DATA     BYTE      ADC_RESL
      00000082H   SFRSYM    DATA     BYTE      DPL
      000000CDH   SFRSYM    DATA     BYTE      SPSTAT
      000000B7H   SFRSYM    DATA     BYTE      IPH
      000000F1H   SFRSYM    DATA     BYTE      PWMSET
      0000009BH   SFRSYM    DATA     BYTE      S2BUF
      000000ADH   SFRSYM    DATA     BYTE      S3BUF
      00000098H.4 SFRSYM    DATA     BIT       REN
      00000085H   SFRSYM    DATA     BYTE      S4BUF
      0000009AH   SFRSYM    DATA     BYTE      S2CON
      000000E3H   SFRSYM    DATA     BYTE      DPS
      000000ACH   SFRSYM    DATA     BYTE      S3CON
      00000084H   SFRSYM    DATA     BYTE      S4CON
      000000EFH   SFRSYM    DATA     BYTE      AUXINTIF
      000000B9H   SFRSYM    DATA     BYTE      SADEN
      000000B0H.0 SFRSYM    DATA     BIT       RXD
      000000A9H   SFRSYM    DATA     BYTE      SADDR
      000000B0H.1 SFRSYM    DATA     BIT       TXD
      000000F0H.0 SFRSYM    DATA     BIT       B0
      000000F0H.1 SFRSYM    DATA     BIT       B1
      000000C6H   SFRSYM    DATA     BYTE      IAP_TRIG
      000000A2H   SFRSYM    DATA     BYTE      AUXR1
      000000F0H.2 SFRSYM    DATA     BIT       B2
      000000F0H.3 SFRSYM    DATA     BIT       B3
      000000F0H.4 SFRSYM    DATA     BIT       B4
      000000D0H.5 SFRSYM    DATA     BIT       F0
      0000009DH   SFRSYM    DATA     BYTE      IRCBAND
      000000F0H.5 SFRSYM    DATA     BIT       B5
      000000D0H.1 SFRSYM    DATA     BIT       F1
      0000008FH   SFRSYM    DATA     BYTE      INT_CLKO
      000000F0H.6 SFRSYM    DATA     BIT       B6
      000000E0H.0 SFRSYM    DATA     BIT       ACC0
      000000F0H.7 SFRSYM    DATA     BIT       B7
      000000E0H.1 SFRSYM    DATA     BIT       ACC1
      000000E0H.2 SFRSYM    DATA     BIT       ACC2
      000000E0H.3 SFRSYM    DATA     BIT       ACC3
      000000D0H   SFRSYM    DATA     BYTE      PSW
LX51 LINKER/LOCATER V4.66.93.0                                                        06/10/2021  10:13:51  PAGE 49


      000000E0H.4 SFRSYM    DATA     BIT       ACC4
      000000E0H.5 SFRSYM    DATA     BIT       ACC5
      000000D8H.0 SFRSYM    DATA     BIT       CCF0
      000000E0H.6 SFRSYM    DATA     BIT       ACC6
      000000D8H.1 SFRSYM    DATA     BIT       CCF1
      000000CFH   SFRSYM    DATA     BYTE      SPDAT
      00000094H   SFRSYM    DATA     BYTE      P0M0

      01000008H   BLOCK     CODE     ---       LVL=0
      01000008H   LINE      CODE     ---       #24
      01000008H   LINE      CODE     ---       #26
      0100000AH   LINE      CODE     ---       #27
      ---         BLOCKEND  ---      ---       LVL=0

      0100001AH   BLOCK     CODE     ---       LVL=0
      0100001AH   LINE      CODE     ---       #36
      0100001AH   LINE      CODE     ---       #40
      ---         BLOCKEND  ---      ---       LVL=0

      01000060H   BLOCK     CODE     ---       LVL=0
      01000060H   LINE      CODE     ---       #49
      01000060H   LINE      CODE     ---       #53
      ---         BLOCKEND  ---      ---       LVL=0

      01000061H   BLOCK     CODE     ---       LVL=0
      01000061H   LINE      CODE     ---       #62
      01000061H   LINE      CODE     ---       #66
      ---         BLOCKEND  ---      ---       LVL=0

      01000062H   BLOCK     CODE     ---       LVL=0
      01000062H   LINE      CODE     ---       #75
      01000062H   LINE      CODE     ---       #79
      ---         BLOCKEND  ---      ---       LVL=0

      ---         MODULE    ---      ---       ?C_STARTUP
      01000000H   PUBLIC    CODE     ---       ?C_STARTUP

      ---         MODULE    ---      ---       ?C?CLDPTR
      010004FDH   PUBLIC    CODE     ---       ?C?CLDPTR

      ---         MODULE    ---      ---       ?C?CLDOPTR
      01000516H   PUBLIC    CODE     ---       ?C?CLDOPTR

      ---         MODULE    ---      ---       ?C?CSTPTR
      01000543H   PUBLIC    CODE     ---       ?C?CSTPTR

      ---         MODULE    ---      ---       ?C?ILDOPTR
      01000555H   PUBLIC    CODE     ---       ?C?ILDOPTR

Program Size: data=40.2 xdata=8 const=67 code=2275
LX51 RUN COMPLETE.  0 WARNING(S),  0 ERROR(S)
