A51 MACRO ASSEMBLER  ISR                                                                  06/10/2021 17:04:32 PAGE     1


MACRO ASSEMBLER A51 V8.2.7.0
OBJECT MODULE PLACED IN .\list\isr.obj
ASSEMBLER INVOKED BY: C:\Keil_v5\C51\BIN\A51.EXE isr.asm SET(LARGE) DEBUG PRINT(.\list\isr.lst) OBJECT(.\list\isr.obj) EP

LOC  OBJ            LINE     SOURCE

                       1     
----                   2             CSEG    AT  012BH           ;P0INT_VECTOR
012B 21DD              3             JMP     P0INT_ISR
----                   4             CSEG    AT  0133H           ;P1INT_VECTOR
0133 21DD              5             JMP     P1INT_ISR
----                   6             CSEG    AT  013BH           ;P2INT_VECTOR
013B 21DD              7             JMP     P2INT_ISR
----                   8             CSEG    AT  0143H           ;P3INT_VECTOR
0143 21DD              9             JMP     P3INT_ISR
----                  10             CSEG    AT  014BH           ;P4INT_VECTOR
014B 21DD             11             JMP     P4INT_ISR
----                  12             CSEG    AT  0153H           ;P5INT_VECTOR
0153 21DD             13             JMP     P5INT_ISR
----                  14             CSEG    AT  015BH           ;P6INT_VECTOR
015B 21DD             15             JMP     P6INT_ISR
----                  16             CSEG    AT  0163H           ;P7INT_VECTOR
0163 8078             17             JMP     P7INT_ISR
----                  18             CSEG    AT  016BH           ;P8INT_VECTOR
016B 8070             19             JMP     P8INT_ISR
----                  20             CSEG    AT  0173H           ;P9INT_VECTOR
0173 8068             21             JMP     P9INT_ISR
----                  22             CSEG    AT  017BH           ;M2MBMM_VECTOR
017B 8060             23             JMP     M2MBMM_ISR
----                  24             CSEG    AT  0183H           ;ADCBMM_VECTOR
0183 8058             25             JMP     ADCBMM_ISR
----                  26             CSEG    AT  018BH           ;SPIBMM_VECTOR
018B 8050             27             JMP     SPIBMM_ISR
----                  28             CSEG    AT  0193H           ;U1TXBMM_VECTOR
0193 8048             29             JMP     U1TXBMM_ISR
----                  30             CSEG    AT  019BH           ;U1RXBMM_VECTOR
019B 8040             31             JMP     U1RXBMM_ISR
----                  32             CSEG    AT  01A3H           ;U2TXBMM_VECTOR
01A3 8038             33             JMP     U2TXBMM_ISR
----                  34             CSEG    AT  01ABH           ;U2RXBMM_VECTOR
01AB 8030             35             JMP     U2RXBMM_ISR
----                  36             CSEG    AT  01B3H           ;U3TXBMM_VECTOR
01B3 8028             37             JMP     U3TXBMM_ISR
----                  38             CSEG    AT  01BBH           ;U3RXBMM_VECTOR
01BB 8020             39             JMP     U3RXBMM_ISR
----                  40             CSEG    AT  01C3H           ;U4TXBMM_VECTOR
01C3 8018             41             JMP     U4TXBMM_ISR
----                  42             CSEG    AT  01CBH           ;U4RXBMM_VECTOR
01CB 8010             43             JMP     U4RXBMM_ISR
----                  44             CSEG    AT  01D3H           ;LCMBMM_VECTOR
01D3 8008             45             JMP     LCMBMM_ISR
----                  46             CSEG    AT  01DBH           ;LCMIF_VECTOR
01DB 8000             47             JMP     LCMIF_ISR
                      48     
01DD                  49     P0INT_ISR:
01DD                  50     P1INT_ISR:
01DD                  51     P2INT_ISR:
01DD                  52     P3INT_ISR:
01DD                  53     P4INT_ISR:
01DD                  54     P5INT_ISR:
01DD                  55     P6INT_ISR:
01DD                  56     P7INT_ISR:
01DD                  57     P8INT_ISR:
01DD                  58     P9INT_ISR:
A51 MACRO ASSEMBLER  ISR                                                                  06/10/2021 17:04:32 PAGE     2

01DD                  59     M2MBMM_ISR:
01DD                  60     ADCBMM_ISR:
01DD                  61     SPIBMM_ISR:
01DD                  62     U1TXBMM_ISR:
01DD                  63     U1RXBMM_ISR:
01DD                  64     U2TXBMM_ISR:
01DD                  65     U2RXBMM_ISR:
01DD                  66     U3TXBMM_ISR:
01DD                  67     U3RXBMM_ISR:
01DD                  68     U4TXBMM_ISR:
01DD                  69     U4RXBMM_ISR:
01DD                  70     LCMBMM_ISR:
01DD                  71     LCMIF_ISR:
                      72     
01DD 016B             73             JMP     006BH
                      74     
                      75             END
A51 MACRO ASSEMBLER  ISR                                                                  06/10/2021 17:04:32 PAGE     3

SYMBOL TABLE LISTING
------ ----- -------


N A M E             T Y P E  V A L U E   ATTRIBUTES

ADCBMM_ISR . . . .  C ADDR   01DDH   A   
LCMBMM_ISR . . . .  C ADDR   01DDH   A   
LCMIF_ISR. . . . .  C ADDR   01DDH   A   
M2MBMM_ISR . . . .  C ADDR   01DDH   A   
P0INT_ISR. . . . .  C ADDR   01DDH   A   
P1INT_ISR. . . . .  C ADDR   01DDH   A   
P2INT_ISR. . . . .  C ADDR   01DDH   A   
P3INT_ISR. . . . .  C ADDR   01DDH   A   
P4INT_ISR. . . . .  C ADDR   01DDH   A   
P5INT_ISR. . . . .  C ADDR   01DDH   A   
P6INT_ISR. . . . .  C ADDR   01DDH   A   
P7INT_ISR. . . . .  C ADDR   01DDH   A   
P8INT_ISR. . . . .  C ADDR   01DDH   A   
P9INT_ISR. . . . .  C ADDR   01DDH   A   
SPIBMM_ISR . . . .  C ADDR   01DDH   A   
U1RXBMM_ISR. . . .  C ADDR   01DDH   A   
U1TXBMM_ISR. . . .  C ADDR   01DDH   A   
U2RXBMM_ISR. . . .  C ADDR   01DDH   A   
U2TXBMM_ISR. . . .  C ADDR   01DDH   A   
U3RXBMM_ISR. . . .  C ADDR   01DDH   A   
U3TXBMM_ISR. . . .  C ADDR   01DDH   A   
U4RXBMM_ISR. . . .  C ADDR   01DDH   A   
U4TXBMM_ISR. . . .  C ADDR   01DDH   A   


REGISTER BANK(S) USED: 0 


ASSEMBLY COMPLETE.  0 WARNING(S), 0 ERROR(S)
