LX51 LINKER/LOCATER V4.66.93.0                                                          06/09/2021  13:46:55  PAGE 1


LX51 LINKER/LOCATER V4.66.93.0, INVOKED BY:
C:\KEIL_V5\C51\BIN\LX51.EXE .\list\main.obj, .\list\STC8A_Delay.obj, .\list\STC8A_Exti.obj, .\list\STC8A_GPIO.obj, .\lis
>> t\STC8A_NVIC.obj, .\list\STC8A_UART.obj, .\list\STC8A_UART_Isr.obj, .\list\STC8A_Exti_Isr.obj TO .\list\sleep PRINT (
>> .\list\sleep.map) REMOVEUNUSED


CPU MODE:     8051 MODE
MEMORY MODEL: SMALL


INPUT MODULES INCLUDED:
  .\list\main.obj (MAIN)
         COMMENT TYPE 0: C51 V9.59.0.0
  .\list\STC8A_Delay.obj (STC8A_DELAY)
         COMMENT TYPE 0: C51 V9.59.0.0
  .\list\STC8A_Exti.obj (STC8A_EXTI)
         COMMENT TYPE 0: C51 V9.59.0.0
  .\list\STC8A_GPIO.obj (STC8A_GPIO)
         COMMENT TYPE 0: C51 V9.59.0.0
  .\list\STC8A_NVIC.obj (STC8A_NVIC)
         COMMENT TYPE 0: C51 V9.59.0.0
  .\list\STC8A_UART.obj (STC8A_UART)
         COMMENT TYPE 0: C51 V9.59.0.0
  .\list\STC8A_UART_Isr.obj (STC8A_UART_ISR)
         COMMENT TYPE 0: C51 V9.59.0.0
  .\list\STC8A_Exti_Isr.obj (STC8A_EXTI_ISR)
         COMMENT TYPE 0: C51 V9.59.0.0
  C:\KEIL_V5\C51\LIB\C51S.LIB (?C_STARTUP)
         COMMENT TYPE 1: A51 / ASM51 Assembler
  C:\KEIL_V5\C51\LIB\C51S.LIB (?C?CLDPTR)
         COMMENT TYPE 1: A51 / ASM51 Assembler
  C:\KEIL_V5\C51\LIB\C51S.LIB (?C?CLDOPTR)
         COMMENT TYPE 1: A51 / ASM51 Assembler
  C:\KEIL_V5\C51\LIB\C51S.LIB (?C?ULDIV)
         COMMENT TYPE 1: A51 / ASM51 Assembler
  C:\KEIL_V5\C51\LIB\C51S.LIB (?C?ULCMP)
         COMMENT TYPE 1: A51 / ASM51 Assembler
  C:\KEIL_V5\C51\LIB\C51S.LIB (?C?ULSHR)
         COMMENT TYPE 1: A51 / ASM51 Assembler
  C:\KEIL_V5\C51\LIB\C51S.LIB (?C?LLDOPTR0)
         COMMENT TYPE 1: A51 / ASM51 Assembler
  C:\KEIL_V5\C51\LIB\C51S.LIB (PRINTF)
         COMMENT TYPE 1: A51 / ASM51 Assembler
  C:\KEIL_V5\C51\LIB\C51S.LIB (?C?CSTPTR)
         COMMENT TYPE 1: A51 / ASM51 Assembler
  C:\KEIL_V5\C51\LIB\C51S.LIB (?C?LLDIDATA0)
         COMMENT TYPE 1: A51 / ASM51 Assembler
  C:\KEIL_V5\C51\LIB\C51S.LIB (?C?LLDXDATA0)
         COMMENT TYPE 1: A51 / ASM51 Assembler
  C:\KEIL_V5\C51\LIB\C51S.LIB (?C?LLDPDATA0)
         COMMENT TYPE 1: A51 / ASM51 Assembler
  C:\KEIL_V5\C51\LIB\C51S.LIB (?C?LLDCODE0)
         COMMENT TYPE 1: A51 / ASM51 Assembler
  C:\KEIL_V5\C51\LIB\C51S.LIB (?C?PLDIIDATA)
         COMMENT TYPE 1: A51 / ASM51 Assembler
  C:\KEIL_V5\C51\LIB\C51S.LIB (?C?CCASE)
         COMMENT TYPE 1: A51 / ASM51 Assembler


ACTIVE MEMORY CLASSES OF MODULE:  .\list\sleep (MAIN)

BASE        START       END         USED      MEMORY CLASS
==========================================================
C:000000H   C:000000H   C:00FFFFH   000C96H   CODE
I:000000H   I:000000H   I:00007FH   000025H   DATA
C:000000H   C:000000H   C:00FFFFH   000082H   CONST
LX51 LINKER/LOCATER V4.66.93.0                                                        06/09/2021  13:46:55  PAGE 2


X:000000H   X:000000H   X:00FFFFH   000100H   XDATA
I:000000H   I:000000H   I:0000FFH   000001H   IDATA
I:000020H.0 I:000020H.0 I:00002FH.7 000001H.1 BIT


MEMORY MAP OF MODULE:  .\list\sleep (MAIN)


START     STOP      LENGTH    ALIGN  RELOC    MEMORY CLASS   SEGMENT NAME
=========================================================================

* * * * * * * * * * *   D A T A   M E M O R Y   * * * * * * * * * * * * *
000000H   000007H   000008H   ---    AT..     DATA           "REG BANK 0"
000008H   00001BH   000014H   BYTE   UNIT     DATA           _DATA_GROUP_
00001CH   00001DH   000002H   BYTE   UNIT     DATA           ?DT?MAIN
00001EH.0 00001FH.7 000002H.0 ---    ---      **GAP**
000020H.0 000021H.0 000001H.1 BIT    UNIT     BIT            _BIT_GROUP_
000021H.1 000021H   000000H.7 ---    ---      **GAP**
000022H   000028H   000007H   BYTE   UNIT     DATA           ?DT?STC8A_UART
000029H   000029H   000001H   BYTE   UNIT     IDATA          ?STACK

* * * * * * * * * * *   C O D E   M E M O R Y   * * * * * * * * * * * * *
000000H   000002H   000003H   ---    OFFS..   CODE           ?CO??C_STARTUP?0
000003H   000005H   000003H   BYTE   OFFS..   CODE           ?STC8A_EXTI_ISR?00003
000006H   000011H   00000CH   BYTE   UNIT     CODE           ?C_C51STARTUP
000012H   000012H   000001H   ---    ---      **GAP**
000013H   000015H   000003H   BYTE   OFFS..   CODE           ?STC8A_EXTI_ISR?00013
000016H   00001FH   00000AH   BYTE   UNIT     CODE           ?PR?_TX1_WRITE2BUFF?STC8A_UART
000020H   000022H   000003H   ---    ---      **GAP**
000023H   000025H   000003H   BYTE   OFFS..   CODE           ?STC8A_UART_ISR?00023
000026H   00004CH   000027H   BYTE   UNIT     CODE           ?PR?UART_CONFIG?MAIN
00004DH   000051H   000005H   BYTE   UNIT     CODE           ?PR?_PUTCHAR?STC8A_UART
000052H   000052H   000001H   ---    ---      **GAP**
000053H   000055H   000003H   BYTE   OFFS..   CODE           ?STC8A_EXTI_ISR?00053
000056H   000059H   000004H   BYTE   UNIT     CODE           ?PR?INT0_ISR_HANDLER?STC8A_EXTI_ISR
00005AH   00005AH   000001H   ---    ---      **GAP**
00005BH   00005DH   000003H   BYTE   OFFS..   CODE           ?STC8A_EXTI_ISR?0005B
00005EH   000078H   00001BH   BYTE   UNIT     CODE           ?PR?_NVIC_INT4_INIT?STC8A_NVIC
000079H   00007CH   000004H   BYTE   UNIT     CODE           ?PR?INT1_ISR_HANDLER?STC8A_EXTI_ISR
00007DH   000080H   000004H   BYTE   UNIT     CODE           ?PR?INT2_ISR_HANDLER?STC8A_EXTI_ISR
000081H   000082H   000002H   ---    ---      **GAP**
000083H   000085H   000003H   BYTE   OFFS..   CODE           ?STC8A_EXTI_ISR?00083
000086H   0003E1H   00035CH   BYTE   UNIT     CODE           ?PR?PRINTF?PRINTF
0003E2H   000658H   000277H   BYTE   UNIT     CODE           ?PR?_GPIO_INILIZE?STC8A_GPIO
000659H   00083EH   0001E6H   BYTE   UNIT     CODE           ?C?LIB_CODE
00083FH   0009AAH   00016CH   BYTE   UNIT     CODE           ?PR?_UART_CONFIGURATION?STC8A_UART
0009ABH   000A7FH   0000D5H   BYTE   UNIT     CODE           ?PR?MAIN?MAIN
000A80H   000ACCH   00004DH   BYTE   UNIT     CODE           ?PR?_NVIC_INT0_INIT?STC8A_NVIC
000ACDH   000B19H   00004DH   BYTE   UNIT     CODE           ?PR?_NVIC_INT1_INIT?STC8A_NVIC
000B1AH   000B66H   00004DH   BYTE   UNIT     CODE           ?PR?_NVIC_UART1_INIT?STC8A_NVIC
000B67H   000BB1H   00004BH   BYTE   UNIT     CODE           ?PR?UART1_ISR_HANDLER?STC8A_UART_ISR
000BB2H   000BF0H   00003FH   BYTE   UNIT     CODE           ?PR?EXTI_CONFIG?MAIN
000BF1H   000C28H   000038H   BYTE   UNIT     CODE           ?PR?_EXT_INILIZE?STC8A_EXTI
000C29H   000C42H   00001AH   BYTE   UNIT     CODE           ?PR?_NVIC_INT3_INIT?STC8A_NVIC
000C43H   000C5BH   000019H   BYTE   UNIT     CODE           ?PR?_NVIC_INT2_INIT?STC8A_NVIC
000C5CH   000C72H   000017H   BYTE   UNIT     CODE           ?PR?_DELAY_MS?STC8A_DELAY
000C73H   000C85H   000013H   BYTE   UNIT     CODE           ?PR?_PRINTSTRING1?STC8A_UART
000C86H   000C95H   000010H   BYTE   UNIT     CODE           ?PR?GPIO_CONFIG?MAIN
000C96H   000C99H   000004H   BYTE   UNIT     CODE           ?PR?INT3_ISR_HANDLER?STC8A_EXTI_ISR
000C9AH   000C9DH   000004H   BYTE   UNIT     CODE           ?PR?INT4_ISR_HANDLER?STC8A_EXTI_ISR
000C9EH   000D1FH   000082H   BYTE   UNIT     CONST          ?CO?MAIN

* * * * * * * * * * *  X D A T A   M E M O R Y  * * * * * * * * * * * * *
000000H   0000FFH   000100H   BYTE   UNIT     XDATA          ?XD?STC8A_UART

LX51 LINKER/LOCATER V4.66.93.0                                                        06/09/2021  13:46:55  PAGE 3


* * * * * * * * *   R E M O V E D     S E G M E N T S   * * * * * * * *
   *DEL*:           00004DH   BYTE   UNIT     CODE           ?PR?_NVIC_TIMER0_INIT?STC8A_NVIC
   *DEL*:           00004DH   BYTE   UNIT     CODE           ?PR?_NVIC_TIMER1_INIT?STC8A_NVIC
   *DEL*:           00001AH   BYTE   UNIT     CODE           ?PR?_NVIC_TIMER2_INIT?STC8A_NVIC
   *DEL*:           00001AH   BYTE   UNIT     CODE           ?PR?_NVIC_TIMER3_INIT?STC8A_NVIC
   *DEL*:           00001BH   BYTE   UNIT     CODE           ?PR?_NVIC_TIMER4_INIT?STC8A_NVIC
   *DEL*:           00004DH   BYTE   UNIT     CODE           ?PR?_NVIC_ADC_INIT?STC8A_NVIC
   *DEL*:           000062H   BYTE   UNIT     CODE           ?PR?_NVIC_CMP_INIT?STC8A_NVIC
   *DEL*:           00006FH   BYTE   UNIT     CODE           ?PR?_NVIC_I2C_INIT?STC8A_NVIC
   *DEL*:           00004EH   BYTE   UNIT     CODE           ?PR?_NVIC_UART2_INIT?STC8A_NVIC
   *DEL*:           000055H   BYTE   UNIT     CODE           ?PR?_NVIC_UART3_INIT?STC8A_NVIC
   *DEL*:           000053H   BYTE   UNIT     CODE           ?PR?_NVIC_UART4_INIT?STC8A_NVIC
   *DEL*:           000052H   BYTE   UNIT     CODE           ?PR?_NVIC_SPI_INIT?STC8A_NVIC
   *DEL*:           000077H   BYTE   UNIT     CODE           ?PR?_NVIC_PCA_INIT?STC8A_NVIC
   *DEL*:           000047H   BYTE   UNIT     CODE           ?PR?_NVIC_BMM_ADC_INIT?STC8A_NVIC
   *DEL*:           000047H   BYTE   UNIT     CODE           ?PR?_NVIC_BMM_M2M_INIT?STC8A_NVIC
   *DEL*:           000047H   BYTE   UNIT     CODE           ?PR?_NVIC_BMM_SPI_INIT?STC8A_NVIC
   *DEL*:           000047H   BYTE   UNIT     CODE           ?PR?_NVIC_BMM_UART1_TX_INIT?STC8A_NVIC
   *DEL*:           000047H   BYTE   UNIT     CODE           ?PR?_NVIC_BMM_UART1_RX_INIT?STC8A_NVIC
   *DEL*:           000047H   BYTE   UNIT     CODE           ?PR?_NVIC_BMM_UART2_TX_INIT?STC8A_NVIC
   *DEL*:           000047H   BYTE   UNIT     CODE           ?PR?_NVIC_BMM_UART2_RX_INIT?STC8A_NVIC
   *DEL*:           000047H   BYTE   UNIT     CODE           ?PR?_NVIC_BMM_UART3_TX_INIT?STC8A_NVIC
   *DEL*:           000047H   BYTE   UNIT     CODE           ?PR?_NVIC_BMM_UART3_RX_INIT?STC8A_NVIC
   *DEL*:           000047H   BYTE   UNIT     CODE           ?PR?_NVIC_BMM_UART4_TX_INIT?STC8A_NVIC
   *DEL*:           000047H   BYTE   UNIT     CODE           ?PR?_NVIC_BMM_UART4_RX_INIT?STC8A_NVIC
   *DEL*:           000047H   BYTE   UNIT     CODE           ?PR?_NVIC_BMM_LCM_INIT?STC8A_NVIC
   *DEL*:           000036H   BYTE   UNIT     CODE           ?PR?_NVIC_LCM_INIT?STC8A_NVIC



OVERLAY MAP OF MODULE:   .\list\sleep (MAIN)


FUNCTION/MODULE                          BIT_GROUP   DATA_GROUP 
--> CALLED FUNCTION/MODULE              START  STOP  START  STOP
================================================================
UART1_ISR_HANDLER/STC8A_UART_ISR        ----- -----  ----- -----

*** NEW ROOT **************************

INT0_ISR_HANDLER/STC8A_EXTI_ISR         ----- -----  ----- -----

*** NEW ROOT **************************

INT1_ISR_HANDLER/STC8A_EXTI_ISR         ----- -----  ----- -----

*** NEW ROOT **************************

INT2_ISR_HANDLER/STC8A_EXTI_ISR         ----- -----  ----- -----

*** NEW ROOT **************************

INT3_ISR_HANDLER/STC8A_EXTI_ISR         ----- -----  ----- -----

*** NEW ROOT **************************

INT4_ISR_HANDLER/STC8A_EXTI_ISR         ----- -----  ----- -----

*** NEW ROOT **************************

?C_C51STARTUP                           ----- -----  ----- -----
  +--> MAIN/MAIN

MAIN/MAIN                               ----- -----  ----- -----
  +--> GPIO_CONFIG/MAIN
LX51 LINKER/LOCATER V4.66.93.0                                                        06/09/2021  13:46:55  PAGE 4


  +--> UART_CONFIG/MAIN
  +--> PRINTF/PRINTF
  +--> _DELAY_MS/STC8A_DELAY
  +--> EXTI_CONFIG/MAIN
  +--> _TX1_WRITE2BUFF/STC8A_UART
  +--> _PRINTSTRING1/STC8A_UART

GPIO_CONFIG/MAIN                        ----- -----  0008H 0009H
  +--> _GPIO_INILIZE/STC8A_GPIO

_GPIO_INILIZE/STC8A_GPIO                ----- -----  ----- -----

UART_CONFIG/MAIN                        ----- -----  0008H 0010H
  +--> _UART_CONFIGURATION/STC8A_UART
  +--> _NVIC_UART1_INIT/STC8A_NVIC

_UART_CONFIGURATION/STC8A_UART          ----- -----  0011H 0017H

_NVIC_UART1_INIT/STC8A_NVIC             ----- -----  ----- -----

PRINTF/PRINTF                           20H.0 21H.0  0008H 001BH
  +--> _PUTCHAR/STC8A_UART

_PUTCHAR/STC8A_UART                     ----- -----  ----- -----
  +--> _TX1_WRITE2BUFF/STC8A_UART

_TX1_WRITE2BUFF/STC8A_UART              ----- -----  ----- -----

_DELAY_MS/STC8A_DELAY                   ----- -----  ----- -----

EXTI_CONFIG/MAIN                        ----- -----  0008H 0008H
  +--> _EXT_INILIZE/STC8A_EXTI
  +--> _NVIC_INT0_INIT/STC8A_NVIC
  +--> _NVIC_INT1_INIT/STC8A_NVIC
  +--> _NVIC_INT2_INIT/STC8A_NVIC
  +--> _NVIC_INT3_INIT/STC8A_NVIC
  +--> _NVIC_INT4_INIT/STC8A_NVIC

_EXT_INILIZE/STC8A_EXTI                 ----- -----  ----- -----

_NVIC_INT0_INIT/STC8A_NVIC              ----- -----  ----- -----

_NVIC_INT1_INIT/STC8A_NVIC              ----- -----  ----- -----

_NVIC_INT2_INIT/STC8A_NVIC              ----- -----  ----- -----

_NVIC_INT3_INIT/STC8A_NVIC              ----- -----  ----- -----

_NVIC_INT4_INIT/STC8A_NVIC              ----- -----  ----- -----

_PRINTSTRING1/STC8A_UART                ----- -----  ----- -----
  +--> _TX1_WRITE2BUFF/STC8A_UART



PUBLIC SYMBOLS OF MODULE:  .\list\sleep (MAIN)


      VALUE       CLASS    TYPE      PUBLIC SYMBOL NAME
      =================================================
      00000008H   DATA     ---       ?_PRINTF517?BYTE
      00000008H   DATA     ---       ?_PRINTF?BYTE
      00000008H   DATA     ---       ?_SPRINTF517?BYTE
      00000008H   DATA     ---       ?_SPRINTF?BYTE
      01000819H   CODE     ---       ?C?CCASE
LX51 LINKER/LOCATER V4.66.93.0                                                        06/09/2021  13:46:55  PAGE 5


      01000672H   CODE     ---       ?C?CLDOPTR
      01000659H   CODE     ---       ?C?CLDPTR
      00000000H   NUMBER   ---       ?C?CODESEG
      010007C1H   CODE     ---       ?C?CSTPTR
      010007F9H   CODE     ---       ?C?LLDCODE0
      010007D3H   CODE     ---       ?C?LLDIDATA0
      01000791H   CODE     ---       ?C?LLDOPTR0
      010007ECH   CODE     ---       ?C?LLDPDATA0
      010007E0H   CODE     ---       ?C?LLDXDATA0
      01000809H   CODE     ---       ?C?PLDIIDATA
      0100076DH   CODE     ---       ?C?ULCMP
      010006DBH   CODE     ---       ?C?ULDIV
      0100077EH   CODE     ---       ?C?ULSHR
      00000000H   NUMBER   ---       ?C?XDATASEG
      010009ABH   CODE     ---       ?C_START
      01000000H   CODE     ---       ?C_STARTUP
      01000C5CH   CODE     ---       _delay_ms
      01000BF1H   CODE     ---       _Ext_Inilize
      010003E2H   CODE     ---       _GPIO_Inilize
*DEL*:00000000H   CODE     ---       _NVIC_ADC_Init
*DEL*:00000000H   CODE     ---       _NVIC_BMM_ADC_Init
*DEL*:00000000H   CODE     ---       _NVIC_BMM_LCM_Init
*DEL*:00000000H   CODE     ---       _NVIC_BMM_M2M_Init
*DEL*:00000000H   CODE     ---       _NVIC_BMM_SPI_Init
*DEL*:00000000H   CODE     ---       _NVIC_BMM_UART1_Rx_Init
*DEL*:00000000H   CODE     ---       _NVIC_BMM_UART1_Tx_Init
*DEL*:00000000H   CODE     ---       _NVIC_BMM_UART2_Rx_Init
*DEL*:00000000H   CODE     ---       _NVIC_BMM_UART2_Tx_Init
*DEL*:00000000H   CODE     ---       _NVIC_BMM_UART3_Rx_Init
*DEL*:00000000H   CODE     ---       _NVIC_BMM_UART3_Tx_Init
*DEL*:00000000H   CODE     ---       _NVIC_BMM_UART4_Rx_Init
*DEL*:00000000H   CODE     ---       _NVIC_BMM_UART4_Tx_Init
*DEL*:00000000H   CODE     ---       _NVIC_CMP_Init
*DEL*:00000000H   CODE     ---       _NVIC_I2C_Init
      01000A80H   CODE     ---       _NVIC_INT0_Init
      01000ACDH   CODE     ---       _NVIC_INT1_Init
      01000C43H   CODE     ---       _NVIC_INT2_Init
      01000C29H   CODE     ---       _NVIC_INT3_Init
      0100005EH   CODE     ---       _NVIC_INT4_Init
*DEL*:00000000H   CODE     ---       _NVIC_LCM_Init
*DEL*:00000000H   CODE     ---       _NVIC_PCA_Init
*DEL*:00000000H   CODE     ---       _NVIC_SPI_Init
*DEL*:00000000H   CODE     ---       _NVIC_Timer0_Init
*DEL*:00000000H   CODE     ---       _NVIC_Timer1_Init
*DEL*:00000000H   CODE     ---       _NVIC_Timer2_Init
*DEL*:00000000H   CODE     ---       _NVIC_Timer3_Init
*DEL*:00000000H   CODE     ---       _NVIC_Timer4_Init
      01000B1AH   CODE     ---       _NVIC_UART1_Init
*DEL*:00000000H   CODE     ---       _NVIC_UART2_Init
*DEL*:00000000H   CODE     ---       _NVIC_UART3_Init
*DEL*:00000000H   CODE     ---       _NVIC_UART4_Init
      010000E8H   CODE     ---       _PRINTF
      010000E8H   CODE     ---       _PRINTF517
      01000C73H   CODE     ---       _PrintString1
      0100004DH   CODE     ---       _putchar
      010000E2H   CODE     ---       _SPRINTF
      010000E2H   CODE     ---       _SPRINTF517
      01000016H   CODE     ---       _TX1_write2buff
      0100083FH   CODE     ---       _UART_Configuration
*SFR* 000000D0H.6 DATA     BIT       AC
*SFR* 000000E0H   DATA     BYTE      ACC
*SFR* 000000E0H.0 DATA     BIT       ACC0
*SFR* 000000E0H.1 DATA     BIT       ACC1
*SFR* 000000E0H.2 DATA     BIT       ACC2
*SFR* 000000E0H.3 DATA     BIT       ACC3
LX51 LINKER/LOCATER V4.66.93.0                                                        06/09/2021  13:46:55  PAGE 6


*SFR* 000000E0H.4 DATA     BIT       ACC4
*SFR* 000000E0H.5 DATA     BIT       ACC5
*SFR* 000000E0H.6 DATA     BIT       ACC6
*SFR* 000000E0H.7 DATA     BIT       ACC7
*SFR* 000000BCH   DATA     BYTE      ADC_CONTR
*SFR* 000000BDH   DATA     BYTE      ADC_RES
*SFR* 000000BEH   DATA     BYTE      ADC_RESL
*SFR* 000000DEH   DATA     BYTE      ADCCFG
*SFR* 000000EFH   DATA     BYTE      AUXINTIF
*SFR* 0000008EH   DATA     BYTE      AUXR
*SFR* 000000A2H   DATA     BYTE      AUXR1
*SFR* 000000F0H   DATA     BYTE      B
*SFR* 000000F0H.0 DATA     BIT       B0
*SFR* 000000F0H.1 DATA     BIT       B1
*SFR* 000000F0H.2 DATA     BIT       B2
*SFR* 000000F0H.3 DATA     BIT       B3
*SFR* 000000F0H.4 DATA     BIT       B4
*SFR* 000000F0H.5 DATA     BIT       B5
*SFR* 000000F0H.6 DATA     BIT       B6
*SFR* 000000F0H.7 DATA     BIT       B7
*SFR* 000000A1H   DATA     BYTE      BUS_SPEED
*SFR* 000000FAH   DATA     BYTE      CCAP0H
*SFR* 000000EAH   DATA     BYTE      CCAP0L
*SFR* 000000FBH   DATA     BYTE      CCAP1H
*SFR* 000000EBH   DATA     BYTE      CCAP1L
*SFR* 000000FCH   DATA     BYTE      CCAP2H
*SFR* 000000ECH   DATA     BYTE      CCAP2L
*SFR* 000000DAH   DATA     BYTE      CCAPM0
*SFR* 000000DBH   DATA     BYTE      CCAPM1
*SFR* 000000DCH   DATA     BYTE      CCAPM2
*SFR* 000000D8H.0 DATA     BIT       CCF0
*SFR* 000000D8H.1 DATA     BIT       CCF1
*SFR* 000000D8H.2 DATA     BIT       CCF2
*SFR* 000000D8H.3 DATA     BIT       CCF3
*SFR* 000000D8H   DATA     BYTE      CCON
*SFR* 00000090H.1 DATA     BIT       CCP0
*SFR* 00000090H.0 DATA     BIT       CCP1
*SFR* 000000B0H.7 DATA     BIT       CCP2
*SFR* 000000D8H.7 DATA     BIT       CF
*SFR* 000000F9H   DATA     BYTE      CH
*SFR* 000000E9H   DATA     BYTE      CL
*SFR* 000000B0H.5 DATA     BIT       CLKOUT0
*SFR* 000000B0H.4 DATA     BIT       CLKOUT1
*SFR* 000000D9H   DATA     BYTE      CMOD
*SFR* 000000E6H   DATA     BYTE      CMPCR1
*SFR* 000000E7H   DATA     BYTE      CMPCR2
      00000022H   DATA     ---       COM1
*SFR* 000000D8H.6 DATA     BIT       CR
*SFR* 000000D0H.7 DATA     BIT       CY
*SFR* 00000083H   DATA     BYTE      DPH
*SFR* 000000E5H   DATA     BYTE      DPH1
*SFR* 00000082H   DATA     BYTE      DPL
*SFR* 000000E4H   DATA     BYTE      DPL1
*SFR* 000000E3H   DATA     BYTE      DPS
*SFR* 000000A8H.7 DATA     BIT       EA
*SFR* 000000A8H.5 DATA     BIT       EADC
*SFR* 000000A8H.6 DATA     BIT       ELVD
*SFR* 000000A8H.4 DATA     BIT       ES
*SFR* 000000A8H.1 DATA     BIT       ET0
*SFR* 000000A8H.3 DATA     BIT       ET1
*SFR* 000000A8H.0 DATA     BIT       EX0
*SFR* 000000A8H.2 DATA     BIT       EX1
      01000BB2H   CODE     ---       Exti_config
*SFR* 000000D0H.5 DATA     BIT       F0
*SFR* 000000D0H.1 DATA     BIT       F1
LX51 LINKER/LOCATER V4.66.93.0                                                        06/09/2021  13:46:55  PAGE 7


      01000C86H   CODE     ---       GPIO_config
*SFR* 000000C3H   DATA     BYTE      IAP_ADDRH
*SFR* 000000C4H   DATA     BYTE      IAP_ADDRL
*SFR* 000000C5H   DATA     BYTE      IAP_CMD
*SFR* 000000C7H   DATA     BYTE      IAP_CONTR
*SFR* 000000C2H   DATA     BYTE      IAP_DATA
*SFR* 000000F5H   DATA     BYTE      IAP_TPS
*SFR* 000000C6H   DATA     BYTE      IAP_TRIG
*SFR* 000000A8H   DATA     BYTE      IE
*SFR* 00000088H.1 DATA     BIT       IE0
*SFR* 00000088H.3 DATA     BIT       IE1
*SFR* 000000AFH   DATA     BYTE      IE2
*SFR* 000000B0H.2 DATA     BIT       INT0
      01000056H   CODE     ---       INT0_ISR_Handler
*SFR* 000000B0H.3 DATA     BIT       INT1
      01000079H   CODE     ---       INT1_ISR_Handler
*SFR* 000000B0H.6 DATA     BIT       INT2
      0100007DH   CODE     ---       INT2_ISR_Handler
*SFR* 000000B0H.7 DATA     BIT       INT3
      01000C96H   CODE     ---       INT3_ISR_Handler
*SFR* 000000B0H.0 DATA     BIT       INT4
      01000C9AH   CODE     ---       INT4_ISR_Handler
*SFR* 0000008FH   DATA     BYTE      INT_CLKO
*SFR* 000000B8H   DATA     BYTE      IP
*SFR* 000000B5H   DATA     BYTE      IP2
*SFR* 000000B6H   DATA     BYTE      IP2H
*SFR* 000000DFH   DATA     BYTE      IP3
*SFR* 000000EEH   DATA     BYTE      IP3H
*SFR* 000000B7H   DATA     BYTE      IPH
*SFR* 0000009DH   DATA     BYTE      IRCBAND
*SFR* 0000009FH   DATA     BYTE      IRTRIM
*SFR* 00000088H.0 DATA     BIT       IT0
*SFR* 00000088H.2 DATA     BIT       IT1
*SFR* 0000009EH   DATA     BYTE      LIRTRIM
      010009ABH   CODE     ---       main
*SFR* 000000D0H.2 DATA     BIT       OV
*SFR* 000000D0H.0 DATA     BIT       P
*SFR* 00000080H   DATA     BYTE      P0
*SFR* 00000080H.0 DATA     BIT       P00
*SFR* 00000080H.1 DATA     BIT       P01
*SFR* 00000080H.2 DATA     BIT       P02
*SFR* 00000080H.3 DATA     BIT       P03
*SFR* 00000080H.4 DATA     BIT       P04
*SFR* 00000080H.5 DATA     BIT       P05
*SFR* 00000080H.6 DATA     BIT       P06
*SFR* 00000080H.7 DATA     BIT       P07
*SFR* 00000094H   DATA     BYTE      P0M0
*SFR* 00000093H   DATA     BYTE      P0M1
*SFR* 00000090H   DATA     BYTE      P1
*SFR* 00000090H.0 DATA     BIT       P10
*SFR* 00000090H.1 DATA     BIT       P11
*SFR* 00000090H.2 DATA     BIT       P12
*SFR* 00000090H.3 DATA     BIT       P13
*SFR* 00000090H.4 DATA     BIT       P14
*SFR* 00000090H.5 DATA     BIT       P15
*SFR* 00000090H.6 DATA     BIT       P16
*SFR* 00000090H.7 DATA     BIT       P17
*SFR* 00000092H   DATA     BYTE      P1M0
*SFR* 00000091H   DATA     BYTE      P1M1
*SFR* 000000A0H   DATA     BYTE      P2
*SFR* 000000A0H.0 DATA     BIT       P20
*SFR* 000000A0H.1 DATA     BIT       P21
*SFR* 000000A0H.2 DATA     BIT       P22
*SFR* 000000A0H.3 DATA     BIT       P23
*SFR* 000000A0H.4 DATA     BIT       P24
LX51 LINKER/LOCATER V4.66.93.0                                                        06/09/2021  13:46:55  PAGE 8


*SFR* 000000A0H.5 DATA     BIT       P25
*SFR* 000000A0H.6 DATA     BIT       P26
*SFR* 000000A0H.7 DATA     BIT       P27
*SFR* 00000096H   DATA     BYTE      P2M0
*SFR* 00000095H   DATA     BYTE      P2M1
*SFR* 000000B0H   DATA     BYTE      P3
*SFR* 000000B0H.0 DATA     BIT       P30
*SFR* 000000B0H.1 DATA     BIT       P31
*SFR* 000000B0H.2 DATA     BIT       P32
*SFR* 000000B0H.3 DATA     BIT       P33
*SFR* 000000B0H.4 DATA     BIT       P34
*SFR* 000000B0H.5 DATA     BIT       P35
*SFR* 000000B0H.6 DATA     BIT       P36
*SFR* 000000B0H.7 DATA     BIT       P37
*SFR* 000000B2H   DATA     BYTE      P3M0
*SFR* 000000B1H   DATA     BYTE      P3M1
*SFR* 000000C0H   DATA     BYTE      P4
*SFR* 000000C0H.0 DATA     BIT       P40
*SFR* 000000C0H.1 DATA     BIT       P41
*SFR* 000000C0H.2 DATA     BIT       P42
*SFR* 000000C0H.3 DATA     BIT       P43
*SFR* 000000C0H.4 DATA     BIT       P44
*SFR* 000000C0H.5 DATA     BIT       P45
*SFR* 000000C0H.6 DATA     BIT       P46
*SFR* 000000C0H.7 DATA     BIT       P47
*SFR* 000000B4H   DATA     BYTE      P4M0
*SFR* 000000B3H   DATA     BYTE      P4M1
*SFR* 000000C8H   DATA     BYTE      P5
*SFR* 000000C8H.0 DATA     BIT       P50
*SFR* 000000C8H.1 DATA     BIT       P51
*SFR* 000000C8H.2 DATA     BIT       P52
*SFR* 000000C8H.3 DATA     BIT       P53
*SFR* 000000C8H.4 DATA     BIT       P54
*SFR* 000000C8H.5 DATA     BIT       P55
*SFR* 000000C8H.6 DATA     BIT       P56
*SFR* 000000C8H.7 DATA     BIT       P57
*SFR* 000000CAH   DATA     BYTE      P5M0
*SFR* 000000C9H   DATA     BYTE      P5M1
*SFR* 000000E8H   DATA     BYTE      P6
*SFR* 000000E8H.0 DATA     BIT       P60
*SFR* 000000E8H.1 DATA     BIT       P61
*SFR* 000000E8H.2 DATA     BIT       P62
*SFR* 000000E8H.3 DATA     BIT       P63
*SFR* 000000E8H.4 DATA     BIT       P64
*SFR* 000000E8H.5 DATA     BIT       P65
*SFR* 000000E8H.6 DATA     BIT       P66
*SFR* 000000E8H.7 DATA     BIT       P67
*SFR* 000000CCH   DATA     BYTE      P6M0
*SFR* 000000CBH   DATA     BYTE      P6M1
*SFR* 000000F8H   DATA     BYTE      P7
*SFR* 000000F8H.0 DATA     BIT       P70
*SFR* 000000F8H.1 DATA     BIT       P71
*SFR* 000000F8H.2 DATA     BIT       P72
*SFR* 000000F8H.3 DATA     BIT       P73
*SFR* 000000F8H.4 DATA     BIT       P74
*SFR* 000000F8H.5 DATA     BIT       P75
*SFR* 000000F8H.6 DATA     BIT       P76
*SFR* 000000F8H.7 DATA     BIT       P77
*SFR* 000000E2H   DATA     BYTE      P7M0
*SFR* 000000E1H   DATA     BYTE      P7M1
*SFR* 000000A2H   DATA     BYTE      P_SW1
*SFR* 000000BAH   DATA     BYTE      P_SW2
*SFR* 000000B8H.5 DATA     BIT       PADC
*SFR* 000000F2H   DATA     BYTE      PCA_PWM0
*SFR* 000000F3H   DATA     BYTE      PCA_PWM1
LX51 LINKER/LOCATER V4.66.93.0                                                        06/09/2021  13:46:55  PAGE 9


*SFR* 000000F4H   DATA     BYTE      PCA_PWM2
*SFR* 00000087H   DATA     BYTE      PCON
*SFR* 000000B8H.6 DATA     BIT       PLVD
*SFR* 000000B8H.7 DATA     BIT       PPCA
*SFR* 000000B8H.4 DATA     BIT       PS
*SFR* 000000D0H   DATA     BYTE      PSW
*SFR* 000000B8H.1 DATA     BIT       PT0
*SFR* 000000B8H.3 DATA     BIT       PT1
*SFR* 000000F6H   DATA     BYTE      PWMCFG
*SFR* 000000F1H   DATA     BYTE      PWMSET
*SFR* 000000B8H.0 DATA     BIT       PX0
*SFR* 000000B8H.2 DATA     BIT       PX1
*SFR* 00000098H.2 DATA     BIT       RB8
*SFR* 000000B0H.7 DATA     BIT       RD
*SFR* 00000098H.4 DATA     BIT       REN
*SFR* 00000098H.0 DATA     BIT       RI
*SFR* 000000D0H.3 DATA     BIT       RS0
*SFR* 000000D0H.4 DATA     BIT       RS1
*SFR* 000000FFH   DATA     BYTE      RSTCFG
      02000000H   XDATA    ---       RX1_Buffer
*SFR* 000000B0H.0 DATA     BIT       RXD
*SFR* 00000090H.0 DATA     BIT       RXD2
*SFR* 0000009BH   DATA     BYTE      S2BUF
*SFR* 0000009AH   DATA     BYTE      S2CON
*SFR* 000000ADH   DATA     BYTE      S3BUF
*SFR* 000000ACH   DATA     BYTE      S3CON
*SFR* 00000085H   DATA     BYTE      S4BUF
*SFR* 00000084H   DATA     BYTE      S4CON
*SFR* 000000A9H   DATA     BYTE      SADDR
*SFR* 000000B9H   DATA     BYTE      SADEN
*SFR* 00000099H   DATA     BYTE      SBUF
*SFR* 00000098H   DATA     BYTE      SCON
*SFR* 00000098H.7 DATA     BIT       SM0
*SFR* 00000098H.6 DATA     BIT       SM1
*SFR* 00000098H.5 DATA     BIT       SM2
*SFR* 00000081H   DATA     BYTE      SP
*SFR* 000000CEH   DATA     BYTE      SPCTL
*SFR* 000000CFH   DATA     BYTE      SPDAT
*SFR* 000000CDH   DATA     BYTE      SPSTAT
*SFR* 000000B0H.4 DATA     BIT       T0
*SFR* 000000B0H.5 DATA     BIT       T1
*SFR* 000000D6H   DATA     BYTE      T2H
*SFR* 000000D7H   DATA     BYTE      T2L
*SFR* 000000D4H   DATA     BYTE      T3H
*SFR* 000000D5H   DATA     BYTE      T3L
*SFR* 000000D2H   DATA     BYTE      T4H
*SFR* 000000D3H   DATA     BYTE      T4L
*SFR* 000000D1H   DATA     BYTE      T4T3M
*SFR* 000000AEH   DATA     BYTE      TA
*SFR* 00000098H.3 DATA     BIT       TB8
*SFR* 00000088H   DATA     BYTE      TCON
*SFR* 00000088H.5 DATA     BIT       TF0
*SFR* 00000088H.7 DATA     BIT       TF1
*SFR* 0000008CH   DATA     BYTE      TH0
*SFR* 0000008DH   DATA     BYTE      TH1
*SFR* 000000D6H   DATA     BYTE      TH2
*SFR* 000000D4H   DATA     BYTE      TH3
*SFR* 000000D2H   DATA     BYTE      TH4
*SFR* 00000098H.1 DATA     BIT       TI
*SFR* 0000008AH   DATA     BYTE      TL0
*SFR* 0000008BH   DATA     BYTE      TL1
*SFR* 000000D7H   DATA     BYTE      TL2
*SFR* 000000D5H   DATA     BYTE      TL3
*SFR* 000000D3H   DATA     BYTE      TL4
*SFR* 00000089H   DATA     BYTE      TMOD
LX51 LINKER/LOCATER V4.66.93.0                                                        06/09/2021  13:46:55  PAGE 10


*SFR* 00000088H.4 DATA     BIT       TR0
*SFR* 00000088H.6 DATA     BIT       TR1
      02000080H   XDATA    ---       TX1_Buffer
*SFR* 000000B0H.1 DATA     BIT       TXD
*SFR* 00000090H.1 DATA     BIT       TXD2
      01000B67H   CODE     ---       UART1_ISR_Handler
      01000026H   CODE     ---       UART_config
      0000001DH   DATA     BYTE      WakeUpCnt
      0000001CH   DATA     BYTE      WakeUpSource
*SFR* 000000C1H   DATA     BYTE      WDT_CONTR
*SFR* 000000ABH   DATA     BYTE      WKTCH
*SFR* 000000AAH   DATA     BYTE      WKTCL
*SFR* 000000B0H.6 DATA     BIT       WR



SYMBOL TABLE OF MODULE:  .\list\sleep (MAIN)

      VALUE       REP       CLASS    TYPE      SYMBOL NAME
      ====================================================
      ---         MODULE    ---      ---       MAIN
      0000001DH   PUBLIC    DATA     BYTE      WakeUpCnt
      0000001CH   PUBLIC    DATA     BYTE      WakeUpSource
      010009ABH   PUBLIC    CODE     ---       main
      01000026H   PUBLIC    CODE     ---       UART_config
      01000BB2H   PUBLIC    CODE     ---       Exti_config
      01000C86H   PUBLIC    CODE     ---       GPIO_config
      000000E0H.7 SFRSYM    DATA     BIT       ACC7
      000000D8H.2 SFRSYM    DATA     BIT       CCF2
      00000093H   SFRSYM    DATA     BYTE      P0M1
      00000092H   SFRSYM    DATA     BYTE      P1M0
      000000D8H.3 SFRSYM    DATA     BIT       CCF3
      00000096H   SFRSYM    DATA     BYTE      P2M0
      00000091H   SFRSYM    DATA     BYTE      P1M1
      00000080H   SFRSYM    DATA     BYTE      P0
      000000B2H   SFRSYM    DATA     BYTE      P3M0
      00000095H   SFRSYM    DATA     BYTE      P2M1
      00000090H   SFRSYM    DATA     BYTE      P1
      000000B4H   SFRSYM    DATA     BYTE      P4M0
      000000B1H   SFRSYM    DATA     BYTE      P3M1
      000000A0H   SFRSYM    DATA     BYTE      P2
      000000CAH   SFRSYM    DATA     BYTE      P5M0
      000000B3H   SFRSYM    DATA     BYTE      P4M1
      000000B0H   SFRSYM    DATA     BYTE      P3
      000000ABH   SFRSYM    DATA     BYTE      WKTCH
      000000B0H.4 SFRSYM    DATA     BIT       T0
      000000D0H.6 SFRSYM    DATA     BIT       AC
      000000CCH   SFRSYM    DATA     BYTE      P6M0
      000000C9H   SFRSYM    DATA     BYTE      P5M1
      000000C0H   SFRSYM    DATA     BYTE      P4
      000000B0H.5 SFRSYM    DATA     BIT       CLKOUT0
      000000B0H.5 SFRSYM    DATA     BIT       T1
      000000E2H   SFRSYM    DATA     BYTE      P7M0
      000000CBH   SFRSYM    DATA     BYTE      P6M1
      000000C8H   SFRSYM    DATA     BYTE      P5
      000000A8H.7 SFRSYM    DATA     BIT       EA
      000000B0H.4 SFRSYM    DATA     BIT       CLKOUT1
      000000E8H   SFRSYM    DATA     BYTE      P6
      000000E1H   SFRSYM    DATA     BYTE      P7M1
      00000090H.1 SFRSYM    DATA     BIT       CCP0
      000000F8H   SFRSYM    DATA     BYTE      P7
      000000AAH   SFRSYM    DATA     BYTE      WKTCL
      00000090H.0 SFRSYM    DATA     BIT       CCP1
      000000CEH   SFRSYM    DATA     BYTE      SPCTL
      000000B0H.7 SFRSYM    DATA     BIT       CCP2
LX51 LINKER/LOCATER V4.66.93.0                                                        06/09/2021  13:46:55  PAGE 11


      000000D8H.7 SFRSYM    DATA     BIT       CF
      000000F9H   SFRSYM    DATA     BYTE      CH
      000000A2H   SFRSYM    DATA     BYTE      P_SW1
      000000BAH   SFRSYM    DATA     BYTE      P_SW2
      000000A8H.5 SFRSYM    DATA     BIT       EADC
      000000E5H   SFRSYM    DATA     BYTE      DPH1
      000000A8H   SFRSYM    DATA     BYTE      IE
      000000E9H   SFRSYM    DATA     BYTE      CL
      000000C5H   SFRSYM    DATA     BYTE      IAP_CMD
      000000FAH   SFRSYM    DATA     BYTE      CCAP0H
      000000FBH   SFRSYM    DATA     BYTE      CCAP1H
      000000E4H   SFRSYM    DATA     BYTE      DPL1
      000000FCH   SFRSYM    DATA     BYTE      CCAP2H
      000000BDH   SFRSYM    DATA     BYTE      ADC_RES
      000000B6H   SFRSYM    DATA     BYTE      IP2H
      000000EEH   SFRSYM    DATA     BYTE      IP3H
      000000EAH   SFRSYM    DATA     BYTE      CCAP0L
      000000D8H.6 SFRSYM    DATA     BIT       CR
      000000AEH   SFRSYM    DATA     BYTE      TA
      000000B0H.7 SFRSYM    DATA     BIT       RD
      000000EBH   SFRSYM    DATA     BYTE      CCAP1L
      000000DAH   SFRSYM    DATA     BYTE      CCAPM0
      000000ECH   SFRSYM    DATA     BYTE      CCAP2L
      000000DBH   SFRSYM    DATA     BYTE      CCAPM1
      000000A8H.4 SFRSYM    DATA     BIT       ES
      000000DCH   SFRSYM    DATA     BYTE      CCAPM2
      000000B8H.5 SFRSYM    DATA     BIT       PADC
      000000B8H   SFRSYM    DATA     BYTE      IP
      000000DEH   SFRSYM    DATA     BYTE      ADCCFG
      00000098H.0 SFRSYM    DATA     BIT       RI
      000000B0H.2 SFRSYM    DATA     BIT       INT0
      000000D0H.7 SFRSYM    DATA     BIT       CY
      00000098H.1 SFRSYM    DATA     BIT       TI
      000000B0H.3 SFRSYM    DATA     BIT       INT1
      000000B0H.6 SFRSYM    DATA     BIT       INT2
      000000B0H.7 SFRSYM    DATA     BIT       INT3
      000000B0H.0 SFRSYM    DATA     BIT       INT4
      000000C3H   SFRSYM    DATA     BYTE      IAP_ADDRH
      00000090H.0 SFRSYM    DATA     BIT       RXD2
      00000090H.1 SFRSYM    DATA     BIT       TXD2
      000000B8H.4 SFRSYM    DATA     BIT       PS
      00000081H   SFRSYM    DATA     BYTE      SP
      000000D9H   SFRSYM    DATA     BYTE      CMOD
      000000D8H   SFRSYM    DATA     BYTE      CCON
      000000C4H   SFRSYM    DATA     BYTE      IAP_ADDRL
      000000D0H.2 SFRSYM    DATA     BIT       OV
      000000B8H.7 SFRSYM    DATA     BIT       PPCA
      0000009EH   SFRSYM    DATA     BYTE      LIRTRIM
      000000E6H   SFRSYM    DATA     BYTE      CMPCR1
      000000B0H.6 SFRSYM    DATA     BIT       WR
      000000E7H   SFRSYM    DATA     BYTE      CMPCR2
      000000A8H.6 SFRSYM    DATA     BIT       ELVD
      00000080H.0 SFRSYM    DATA     BIT       P00
      00000090H.0 SFRSYM    DATA     BIT       P10
      00000080H.1 SFRSYM    DATA     BIT       P01
      000000BCH   SFRSYM    DATA     BYTE      ADC_CONTR
      00000099H   SFRSYM    DATA     BYTE      SBUF
      00000087H   SFRSYM    DATA     BYTE      PCON
      000000A0H.0 SFRSYM    DATA     BIT       P20
      00000090H.1 SFRSYM    DATA     BIT       P11
      00000080H.2 SFRSYM    DATA     BIT       P02
      000000B0H.0 SFRSYM    DATA     BIT       P30
      000000A0H.1 SFRSYM    DATA     BIT       P21
      00000090H.2 SFRSYM    DATA     BIT       P12
      00000080H.3 SFRSYM    DATA     BIT       P03
LX51 LINKER/LOCATER V4.66.93.0                                                        06/09/2021  13:46:55  PAGE 12


      000000F5H   SFRSYM    DATA     BYTE      IAP_TPS
      000000C0H.0 SFRSYM    DATA     BIT       P40
      000000B0H.1 SFRSYM    DATA     BIT       P31
      000000A0H.2 SFRSYM    DATA     BIT       P22
      00000090H.3 SFRSYM    DATA     BIT       P13
      00000080H.4 SFRSYM    DATA     BIT       P04
      00000098H   SFRSYM    DATA     BYTE      SCON
      000000C8H.0 SFRSYM    DATA     BIT       P50
      000000C0H.1 SFRSYM    DATA     BIT       P41
      000000B0H.2 SFRSYM    DATA     BIT       P32
      000000A0H.3 SFRSYM    DATA     BIT       P23
      00000090H.4 SFRSYM    DATA     BIT       P14
      00000080H.5 SFRSYM    DATA     BIT       P05
      00000089H   SFRSYM    DATA     BYTE      TMOD
      00000088H   SFRSYM    DATA     BYTE      TCON
      000000E8H.0 SFRSYM    DATA     BIT       P60
      000000C8H.1 SFRSYM    DATA     BIT       P51
      000000C0H.2 SFRSYM    DATA     BIT       P42
      000000B0H.3 SFRSYM    DATA     BIT       P33
      000000A0H.4 SFRSYM    DATA     BIT       P24
      00000090H.5 SFRSYM    DATA     BIT       P15
      00000080H.6 SFRSYM    DATA     BIT       P06
      000000F8H.0 SFRSYM    DATA     BIT       P70
      000000E8H.1 SFRSYM    DATA     BIT       P61
      000000C8H.2 SFRSYM    DATA     BIT       P52
      000000C0H.3 SFRSYM    DATA     BIT       P43
      000000B0H.4 SFRSYM    DATA     BIT       P34
      000000A0H.5 SFRSYM    DATA     BIT       P25
      00000090H.6 SFRSYM    DATA     BIT       P16
      00000080H.7 SFRSYM    DATA     BIT       P07
      000000B8H.6 SFRSYM    DATA     BIT       PLVD
      000000F8H.1 SFRSYM    DATA     BIT       P71
      000000E8H.2 SFRSYM    DATA     BIT       P62
      000000C8H.3 SFRSYM    DATA     BIT       P53
      000000C0H.4 SFRSYM    DATA     BIT       P44
      000000B0H.5 SFRSYM    DATA     BIT       P35
      000000A0H.6 SFRSYM    DATA     BIT       P26
      00000090H.7 SFRSYM    DATA     BIT       P17
      000000F8H.2 SFRSYM    DATA     BIT       P72
      000000E8H.3 SFRSYM    DATA     BIT       P63
      000000C8H.4 SFRSYM    DATA     BIT       P54
      000000C0H.5 SFRSYM    DATA     BIT       P45
      000000B0H.6 SFRSYM    DATA     BIT       P36
      000000A0H.7 SFRSYM    DATA     BIT       P27
      000000F8H.3 SFRSYM    DATA     BIT       P73
      000000E8H.4 SFRSYM    DATA     BIT       P64
      000000C8H.5 SFRSYM    DATA     BIT       P55
      000000C0H.6 SFRSYM    DATA     BIT       P46
      000000B0H.7 SFRSYM    DATA     BIT       P37
      000000F8H.4 SFRSYM    DATA     BIT       P74
      000000E8H.5 SFRSYM    DATA     BIT       P65
      000000C8H.6 SFRSYM    DATA     BIT       P56
      000000C0H.7 SFRSYM    DATA     BIT       P47
      000000F8H.5 SFRSYM    DATA     BIT       P75
      000000E8H.6 SFRSYM    DATA     BIT       P66
      000000C8H.7 SFRSYM    DATA     BIT       P57
      000000F8H.6 SFRSYM    DATA     BIT       P76
      000000E8H.7 SFRSYM    DATA     BIT       P67
      000000F8H.7 SFRSYM    DATA     BIT       P77
      00000088H.1 SFRSYM    DATA     BIT       IE0
      000000A1H   SFRSYM    DATA     BYTE      BUS_SPEED
      00000088H.3 SFRSYM    DATA     BIT       IE1
      000000AFH   SFRSYM    DATA     BYTE      IE2
      000000F0H   SFRSYM    DATA     BYTE      B
      0000008EH   SFRSYM    DATA     BYTE      AUXR
LX51 LINKER/LOCATER V4.66.93.0                                                        06/09/2021  13:46:55  PAGE 13


      000000C7H   SFRSYM    DATA     BYTE      IAP_CONTR
      000000F6H   SFRSYM    DATA     BYTE      PWMCFG
      000000E0H   SFRSYM    DATA     BYTE      ACC
      000000A8H.1 SFRSYM    DATA     BIT       ET0
      000000A8H.3 SFRSYM    DATA     BIT       ET1
      00000088H.5 SFRSYM    DATA     BIT       TF0
      00000088H.7 SFRSYM    DATA     BIT       TF1
      000000FFH   SFRSYM    DATA     BYTE      RSTCFG
      000000B5H   SFRSYM    DATA     BYTE      IP2
      00000098H.2 SFRSYM    DATA     BIT       RB8
      000000DFH   SFRSYM    DATA     BYTE      IP3
      0000008CH   SFRSYM    DATA     BYTE      TH0
      000000A8H.0 SFRSYM    DATA     BIT       EX0
      00000088H.0 SFRSYM    DATA     BIT       IT0
      0000008DH   SFRSYM    DATA     BYTE      TH1
      000000A8H.2 SFRSYM    DATA     BIT       EX1
      00000098H.3 SFRSYM    DATA     BIT       TB8
      00000088H.2 SFRSYM    DATA     BIT       IT1
      000000D6H   SFRSYM    DATA     BYTE      TH2
      000000D6H   SFRSYM    DATA     BYTE      T2H
      000000D0H.0 SFRSYM    DATA     BIT       P
      000000D4H   SFRSYM    DATA     BYTE      TH3
      000000D4H   SFRSYM    DATA     BYTE      T3H
      00000098H.7 SFRSYM    DATA     BIT       SM0
      000000D2H   SFRSYM    DATA     BYTE      TH4
      000000D2H   SFRSYM    DATA     BYTE      T4H
      0000008AH   SFRSYM    DATA     BYTE      TL0
      00000098H.6 SFRSYM    DATA     BIT       SM1
      0000008BH   SFRSYM    DATA     BYTE      TL1
      00000098H.5 SFRSYM    DATA     BIT       SM2
      000000D7H   SFRSYM    DATA     BYTE      TL2
      000000D7H   SFRSYM    DATA     BYTE      T2L
      000000D5H   SFRSYM    DATA     BYTE      TL3
      000000D5H   SFRSYM    DATA     BYTE      T3L
      000000D3H   SFRSYM    DATA     BYTE      TL4
      000000D3H   SFRSYM    DATA     BYTE      T4L
      000000B8H.1 SFRSYM    DATA     BIT       PT0
      000000D0H.3 SFRSYM    DATA     BIT       RS0
      000000B8H.3 SFRSYM    DATA     BIT       PT1
      00000088H.4 SFRSYM    DATA     BIT       TR0
      000000D0H.4 SFRSYM    DATA     BIT       RS1
      000000C2H   SFRSYM    DATA     BYTE      IAP_DATA
      00000088H.6 SFRSYM    DATA     BIT       TR1
      000000C1H   SFRSYM    DATA     BYTE      WDT_CONTR
      000000B8H.0 SFRSYM    DATA     BIT       PX0
      000000B8H.2 SFRSYM    DATA     BIT       PX1
      0000009FH   SFRSYM    DATA     BYTE      IRTRIM
      000000F2H   SFRSYM    DATA     BYTE      PCA_PWM0
      000000F3H   SFRSYM    DATA     BYTE      PCA_PWM1
      000000F4H   SFRSYM    DATA     BYTE      PCA_PWM2
      00000083H   SFRSYM    DATA     BYTE      DPH
      000000D1H   SFRSYM    DATA     BYTE      T4T3M
      000000BEH   SFRSYM    DATA     BYTE      ADC_RESL
      00000082H   SFRSYM    DATA     BYTE      DPL
      000000CDH   SFRSYM    DATA     BYTE      SPSTAT
      000000B7H   SFRSYM    DATA     BYTE      IPH
      000000F1H   SFRSYM    DATA     BYTE      PWMSET
      0000009BH   SFRSYM    DATA     BYTE      S2BUF
      000000ADH   SFRSYM    DATA     BYTE      S3BUF
      00000098H.4 SFRSYM    DATA     BIT       REN
      00000085H   SFRSYM    DATA     BYTE      S4BUF
      0000009AH   SFRSYM    DATA     BYTE      S2CON
      000000E3H   SFRSYM    DATA     BYTE      DPS
      000000ACH   SFRSYM    DATA     BYTE      S3CON
      00000084H   SFRSYM    DATA     BYTE      S4CON
LX51 LINKER/LOCATER V4.66.93.0                                                        06/09/2021  13:46:55  PAGE 14


      000000EFH   SFRSYM    DATA     BYTE      AUXINTIF
      000000B9H   SFRSYM    DATA     BYTE      SADEN
      000000B0H.0 SFRSYM    DATA     BIT       RXD
      000000A9H   SFRSYM    DATA     BYTE      SADDR
      000000B0H.1 SFRSYM    DATA     BIT       TXD
      000000F0H.0 SFRSYM    DATA     BIT       B0
      000000F0H.1 SFRSYM    DATA     BIT       B1
      000000C6H   SFRSYM    DATA     BYTE      IAP_TRIG
      000000A2H   SFRSYM    DATA     BYTE      AUXR1
      000000F0H.2 SFRSYM    DATA     BIT       B2
      000000F0H.3 SFRSYM    DATA     BIT       B3
      000000F0H.4 SFRSYM    DATA     BIT       B4
      000000D0H.5 SFRSYM    DATA     BIT       F0
      0000009DH   SFRSYM    DATA     BYTE      IRCBAND
      000000F0H.5 SFRSYM    DATA     BIT       B5
      000000D0H.1 SFRSYM    DATA     BIT       F1
      0000008FH   SFRSYM    DATA     BYTE      INT_CLKO
      000000F0H.6 SFRSYM    DATA     BIT       B6
      000000E0H.0 SFRSYM    DATA     BIT       ACC0
      000000F0H.7 SFRSYM    DATA     BIT       B7
      000000E0H.1 SFRSYM    DATA     BIT       ACC1
      000000E0H.2 SFRSYM    DATA     BIT       ACC2
      000000E0H.3 SFRSYM    DATA     BIT       ACC3
      000000D0H   SFRSYM    DATA     BYTE      PSW
      000000E0H.4 SFRSYM    DATA     BIT       ACC4
      000000E0H.5 SFRSYM    DATA     BIT       ACC5
      000000D8H.0 SFRSYM    DATA     BIT       CCF0
      000000E0H.6 SFRSYM    DATA     BIT       ACC6
      000000D8H.1 SFRSYM    DATA     BIT       CCF1
      000000CFH   SFRSYM    DATA     BYTE      SPDAT
      00000094H   SFRSYM    DATA     BYTE      P0M0

      01000C86H   BLOCK     CODE     ---       LVL=0
      01000C86H   BLOCK     CODE     NEAR LAB  LVL=1
      00000008H   SYMBOL    DATA     ---       GPIO_InitStructure
      ---         BLOCKEND  ---      ---       LVL=1
      01000C86H   LINE      CODE     ---       #46
      01000C86H   LINE      CODE     ---       #47
      01000C86H   LINE      CODE     ---       #50
      01000C89H   LINE      CODE     ---       #51
      01000C8CH   LINE      CODE     ---       #52
      ---         BLOCKEND  ---      ---       LVL=0

      01000BB2H   BLOCK     CODE     ---       LVL=0
      01000BB2H   BLOCK     CODE     NEAR LAB  LVL=1
      00000008H   SYMBOL    DATA     ---       Exti_InitStructure
      ---         BLOCKEND  ---      ---       LVL=1
      01000BB2H   LINE      CODE     ---       #56
      01000BB2H   LINE      CODE     ---       #57
      01000BB2H   LINE      CODE     ---       #60
      01000BB5H   LINE      CODE     ---       #61
      01000BC0H   LINE      CODE     ---       #62
      01000BC7H   LINE      CODE     ---       #64
      01000BCAH   LINE      CODE     ---       #65
      01000BD5H   LINE      CODE     ---       #66
      01000BDCH   LINE      CODE     ---       #68
      01000BE3H   LINE      CODE     ---       #69
      01000BEAH   LINE      CODE     ---       #70
      ---         BLOCKEND  ---      ---       LVL=0

      01000026H   BLOCK     CODE     ---       LVL=0
      01000026H   BLOCK     CODE     NEAR LAB  LVL=1
      00000008H   SYMBOL    DATA     ---       COMx_InitStructure
      ---         BLOCKEND  ---      ---       LVL=1
      01000026H   LINE      CODE     ---       #74
LX51 LINKER/LOCATER V4.66.93.0                                                        06/09/2021  13:46:55  PAGE 15


      01000026H   LINE      CODE     ---       #75
      01000026H   LINE      CODE     ---       #77
      01000029H   LINE      CODE     ---       #78
      0100002CH   LINE      CODE     ---       #79
      01000038H   LINE      CODE     ---       #80
      0100003BH   LINE      CODE     ---       #81
      01000046H   LINE      CODE     ---       #82
      ---         BLOCKEND  ---      ---       LVL=0

      010009ABH   BLOCK     CODE     ---       LVL=0
      010009ABH   LINE      CODE     ---       #86
      010009ABH   LINE      CODE     ---       #87
      010009ABH   LINE      CODE     ---       #88
      010009AEH   LINE      CODE     ---       #89
      010009B1H   LINE      CODE     ---       #90
      010009B3H   LINE      CODE     ---       #92
      010009BCH   LINE      CODE     ---       #94
      010009BCH   LINE      CODE     ---       #95
      010009BCH   LINE      CODE     ---       #96
      010009BFH   LINE      CODE     ---       #97
      010009C2H   LINE      CODE     ---       #98
      010009C5H   LINE      CODE     ---       #99
      010009C8H   LINE      CODE     ---       #100
      010009CBH   LINE      CODE     ---       #101
      010009D2H   LINE      CODE     ---       #103
      010009D5H   LINE      CODE     ---       #104
      010009D8H   LINE      CODE     ---       #105
      010009DBH   LINE      CODE     ---       #106
      010009DEH   LINE      CODE     ---       #107
      010009E1H   LINE      CODE     ---       #108
      010009E8H   LINE      CODE     ---       #110
      010009EBH   LINE      CODE     ---       #111
      010009EEH   LINE      CODE     ---       #113
      010009F1H   LINE      CODE     ---       #114
      010009F2H   LINE      CODE     ---       #115
      010009F3H   LINE      CODE     ---       #116
      010009F4H   LINE      CODE     ---       #117
      010009F5H   LINE      CODE     ---       #118
      010009F6H   LINE      CODE     ---       #119
      010009F7H   LINE      CODE     ---       #120
      010009F8H   LINE      CODE     ---       #122
      01000A07H   LINE      CODE     ---       #123
      01000A16H   LINE      CODE     ---       #124
      01000A25H   LINE      CODE     ---       #125
      01000A34H   LINE      CODE     ---       #126
      01000A43H   LINE      CODE     ---       #127
      01000A46H   LINE      CODE     ---       #129
      01000A48H   LINE      CODE     ---       #130
      01000A54H   LINE      CODE     ---       #131
      01000A66H   LINE      CODE     ---       #132
      01000A74H   LINE      CODE     ---       #133
      01000A7DH   LINE      CODE     ---       #134
      ---         BLOCKEND  ---      ---       LVL=0

      ---         MODULE    ---      ---       STC8A_DELAY
      01000C5CH   PUBLIC    CODE     ---       _delay_ms
      000000E0H.7 SFRSYM    DATA     BIT       ACC7
      000000D8H.2 SFRSYM    DATA     BIT       CCF2
      00000093H   SFRSYM    DATA     BYTE      P0M1
      00000092H   SFRSYM    DATA     BYTE      P1M0
      000000D8H.3 SFRSYM    DATA     BIT       CCF3
      00000096H   SFRSYM    DATA     BYTE      P2M0
      00000091H   SFRSYM    DATA     BYTE      P1M1
      00000080H   SFRSYM    DATA     BYTE      P0
      000000B2H   SFRSYM    DATA     BYTE      P3M0
LX51 LINKER/LOCATER V4.66.93.0                                                        06/09/2021  13:46:55  PAGE 16


      00000095H   SFRSYM    DATA     BYTE      P2M1
      00000090H   SFRSYM    DATA     BYTE      P1
      000000B4H   SFRSYM    DATA     BYTE      P4M0
      000000B1H   SFRSYM    DATA     BYTE      P3M1
      000000A0H   SFRSYM    DATA     BYTE      P2
      000000CAH   SFRSYM    DATA     BYTE      P5M0
      000000B3H   SFRSYM    DATA     BYTE      P4M1
      000000B0H   SFRSYM    DATA     BYTE      P3
      000000ABH   SFRSYM    DATA     BYTE      WKTCH
      000000B0H.4 SFRSYM    DATA     BIT       T0
      000000D0H.6 SFRSYM    DATA     BIT       AC
      000000CCH   SFRSYM    DATA     BYTE      P6M0
      000000C9H   SFRSYM    DATA     BYTE      P5M1
      000000C0H   SFRSYM    DATA     BYTE      P4
      000000B0H.5 SFRSYM    DATA     BIT       CLKOUT0
      000000B0H.5 SFRSYM    DATA     BIT       T1
      000000E2H   SFRSYM    DATA     BYTE      P7M0
      000000CBH   SFRSYM    DATA     BYTE      P6M1
      000000C8H   SFRSYM    DATA     BYTE      P5
      000000A8H.7 SFRSYM    DATA     BIT       EA
      000000B0H.4 SFRSYM    DATA     BIT       CLKOUT1
      000000E8H   SFRSYM    DATA     BYTE      P6
      000000E1H   SFRSYM    DATA     BYTE      P7M1
      00000090H.1 SFRSYM    DATA     BIT       CCP0
      000000F8H   SFRSYM    DATA     BYTE      P7
      000000AAH   SFRSYM    DATA     BYTE      WKTCL
      00000090H.0 SFRSYM    DATA     BIT       CCP1
      000000CEH   SFRSYM    DATA     BYTE      SPCTL
      000000B0H.7 SFRSYM    DATA     BIT       CCP2
      000000D8H.7 SFRSYM    DATA     BIT       CF
      000000F9H   SFRSYM    DATA     BYTE      CH
      000000A2H   SFRSYM    DATA     BYTE      P_SW1
      000000BAH   SFRSYM    DATA     BYTE      P_SW2
      000000A8H.5 SFRSYM    DATA     BIT       EADC
      000000E5H   SFRSYM    DATA     BYTE      DPH1
      000000A8H   SFRSYM    DATA     BYTE      IE
      000000E9H   SFRSYM    DATA     BYTE      CL
      000000C5H   SFRSYM    DATA     BYTE      IAP_CMD
      000000FAH   SFRSYM    DATA     BYTE      CCAP0H
      000000FBH   SFRSYM    DATA     BYTE      CCAP1H
      000000E4H   SFRSYM    DATA     BYTE      DPL1
      000000FCH   SFRSYM    DATA     BYTE      CCAP2H
      000000BDH   SFRSYM    DATA     BYTE      ADC_RES
      000000B6H   SFRSYM    DATA     BYTE      IP2H
      000000EEH   SFRSYM    DATA     BYTE      IP3H
      000000EAH   SFRSYM    DATA     BYTE      CCAP0L
      000000D8H.6 SFRSYM    DATA     BIT       CR
      000000AEH   SFRSYM    DATA     BYTE      TA
      000000B0H.7 SFRSYM    DATA     BIT       RD
      000000EBH   SFRSYM    DATA     BYTE      CCAP1L
      000000DAH   SFRSYM    DATA     BYTE      CCAPM0
      000000ECH   SFRSYM    DATA     BYTE      CCAP2L
      000000DBH   SFRSYM    DATA     BYTE      CCAPM1
      000000A8H.4 SFRSYM    DATA     BIT       ES
      000000DCH   SFRSYM    DATA     BYTE      CCAPM2
      000000B8H.5 SFRSYM    DATA     BIT       PADC
      000000B8H   SFRSYM    DATA     BYTE      IP
      000000DEH   SFRSYM    DATA     BYTE      ADCCFG
      00000098H.0 SFRSYM    DATA     BIT       RI
      000000B0H.2 SFRSYM    DATA     BIT       INT0
      000000D0H.7 SFRSYM    DATA     BIT       CY
      00000098H.1 SFRSYM    DATA     BIT       TI
      000000B0H.3 SFRSYM    DATA     BIT       INT1
      000000B0H.6 SFRSYM    DATA     BIT       INT2
      000000B0H.7 SFRSYM    DATA     BIT       INT3
LX51 LINKER/LOCATER V4.66.93.0                                                        06/09/2021  13:46:55  PAGE 17


      000000B0H.0 SFRSYM    DATA     BIT       INT4
      000000C3H   SFRSYM    DATA     BYTE      IAP_ADDRH
      00000090H.0 SFRSYM    DATA     BIT       RXD2
      00000090H.1 SFRSYM    DATA     BIT       TXD2
      000000B8H.4 SFRSYM    DATA     BIT       PS
      00000081H   SFRSYM    DATA     BYTE      SP
      000000D9H   SFRSYM    DATA     BYTE      CMOD
      000000D8H   SFRSYM    DATA     BYTE      CCON
      000000C4H   SFRSYM    DATA     BYTE      IAP_ADDRL
      000000D0H.2 SFRSYM    DATA     BIT       OV
      000000B8H.7 SFRSYM    DATA     BIT       PPCA
      0000009EH   SFRSYM    DATA     BYTE      LIRTRIM
      000000E6H   SFRSYM    DATA     BYTE      CMPCR1
      000000B0H.6 SFRSYM    DATA     BIT       WR
      000000E7H   SFRSYM    DATA     BYTE      CMPCR2
      000000A8H.6 SFRSYM    DATA     BIT       ELVD
      00000080H.0 SFRSYM    DATA     BIT       P00
      00000090H.0 SFRSYM    DATA     BIT       P10
      00000080H.1 SFRSYM    DATA     BIT       P01
      000000BCH   SFRSYM    DATA     BYTE      ADC_CONTR
      00000099H   SFRSYM    DATA     BYTE      SBUF
      00000087H   SFRSYM    DATA     BYTE      PCON
      000000A0H.0 SFRSYM    DATA     BIT       P20
      00000090H.1 SFRSYM    DATA     BIT       P11
      00000080H.2 SFRSYM    DATA     BIT       P02
      000000B0H.0 SFRSYM    DATA     BIT       P30
      000000A0H.1 SFRSYM    DATA     BIT       P21
      00000090H.2 SFRSYM    DATA     BIT       P12
      00000080H.3 SFRSYM    DATA     BIT       P03
      000000F5H   SFRSYM    DATA     BYTE      IAP_TPS
      000000C0H.0 SFRSYM    DATA     BIT       P40
      000000B0H.1 SFRSYM    DATA     BIT       P31
      000000A0H.2 SFRSYM    DATA     BIT       P22
      00000090H.3 SFRSYM    DATA     BIT       P13
      00000080H.4 SFRSYM    DATA     BIT       P04
      00000098H   SFRSYM    DATA     BYTE      SCON
      000000C8H.0 SFRSYM    DATA     BIT       P50
      000000C0H.1 SFRSYM    DATA     BIT       P41
      000000B0H.2 SFRSYM    DATA     BIT       P32
      000000A0H.3 SFRSYM    DATA     BIT       P23
      00000090H.4 SFRSYM    DATA     BIT       P14
      00000080H.5 SFRSYM    DATA     BIT       P05
      00000089H   SFRSYM    DATA     BYTE      TMOD
      00000088H   SFRSYM    DATA     BYTE      TCON
      000000E8H.0 SFRSYM    DATA     BIT       P60
      000000C8H.1 SFRSYM    DATA     BIT       P51
      000000C0H.2 SFRSYM    DATA     BIT       P42
      000000B0H.3 SFRSYM    DATA     BIT       P33
      000000A0H.4 SFRSYM    DATA     BIT       P24
      00000090H.5 SFRSYM    DATA     BIT       P15
      00000080H.6 SFRSYM    DATA     BIT       P06
      000000F8H.0 SFRSYM    DATA     BIT       P70
      000000E8H.1 SFRSYM    DATA     BIT       P61
      000000C8H.2 SFRSYM    DATA     BIT       P52
      000000C0H.3 SFRSYM    DATA     BIT       P43
      000000B0H.4 SFRSYM    DATA     BIT       P34
      000000A0H.5 SFRSYM    DATA     BIT       P25
      00000090H.6 SFRSYM    DATA     BIT       P16
      00000080H.7 SFRSYM    DATA     BIT       P07
      000000B8H.6 SFRSYM    DATA     BIT       PLVD
      000000F8H.1 SFRSYM    DATA     BIT       P71
      000000E8H.2 SFRSYM    DATA     BIT       P62
      000000C8H.3 SFRSYM    DATA     BIT       P53
      000000C0H.4 SFRSYM    DATA     BIT       P44
      000000B0H.5 SFRSYM    DATA     BIT       P35
LX51 LINKER/LOCATER V4.66.93.0                                                        06/09/2021  13:46:55  PAGE 18


      000000A0H.6 SFRSYM    DATA     BIT       P26
      00000090H.7 SFRSYM    DATA     BIT       P17
      000000F8H.2 SFRSYM    DATA     BIT       P72
      000000E8H.3 SFRSYM    DATA     BIT       P63
      000000C8H.4 SFRSYM    DATA     BIT       P54
      000000C0H.5 SFRSYM    DATA     BIT       P45
      000000B0H.6 SFRSYM    DATA     BIT       P36
      000000A0H.7 SFRSYM    DATA     BIT       P27
      000000F8H.3 SFRSYM    DATA     BIT       P73
      000000E8H.4 SFRSYM    DATA     BIT       P64
      000000C8H.5 SFRSYM    DATA     BIT       P55
      000000C0H.6 SFRSYM    DATA     BIT       P46
      000000B0H.7 SFRSYM    DATA     BIT       P37
      000000F8H.4 SFRSYM    DATA     BIT       P74
      000000E8H.5 SFRSYM    DATA     BIT       P65
      000000C8H.6 SFRSYM    DATA     BIT       P56
      000000C0H.7 SFRSYM    DATA     BIT       P47
      000000F8H.5 SFRSYM    DATA     BIT       P75
      000000E8H.6 SFRSYM    DATA     BIT       P66
      000000C8H.7 SFRSYM    DATA     BIT       P57
      000000F8H.6 SFRSYM    DATA     BIT       P76
      000000E8H.7 SFRSYM    DATA     BIT       P67
      000000F8H.7 SFRSYM    DATA     BIT       P77
      00000088H.1 SFRSYM    DATA     BIT       IE0
      000000A1H   SFRSYM    DATA     BYTE      BUS_SPEED
      00000088H.3 SFRSYM    DATA     BIT       IE1
      000000AFH   SFRSYM    DATA     BYTE      IE2
      000000F0H   SFRSYM    DATA     BYTE      B
      0000008EH   SFRSYM    DATA     BYTE      AUXR
      000000C7H   SFRSYM    DATA     BYTE      IAP_CONTR
      000000F6H   SFRSYM    DATA     BYTE      PWMCFG
      000000E0H   SFRSYM    DATA     BYTE      ACC
      000000A8H.1 SFRSYM    DATA     BIT       ET0
      000000A8H.3 SFRSYM    DATA     BIT       ET1
      00000088H.5 SFRSYM    DATA     BIT       TF0
      00000088H.7 SFRSYM    DATA     BIT       TF1
      000000FFH   SFRSYM    DATA     BYTE      RSTCFG
      000000B5H   SFRSYM    DATA     BYTE      IP2
      00000098H.2 SFRSYM    DATA     BIT       RB8
      000000DFH   SFRSYM    DATA     BYTE      IP3
      0000008CH   SFRSYM    DATA     BYTE      TH0
      000000A8H.0 SFRSYM    DATA     BIT       EX0
      00000088H.0 SFRSYM    DATA     BIT       IT0
      0000008DH   SFRSYM    DATA     BYTE      TH1
      000000A8H.2 SFRSYM    DATA     BIT       EX1
      00000098H.3 SFRSYM    DATA     BIT       TB8
      00000088H.2 SFRSYM    DATA     BIT       IT1
      000000D6H   SFRSYM    DATA     BYTE      TH2
      000000D6H   SFRSYM    DATA     BYTE      T2H
      000000D0H.0 SFRSYM    DATA     BIT       P
      000000D4H   SFRSYM    DATA     BYTE      TH3
      000000D4H   SFRSYM    DATA     BYTE      T3H
      00000098H.7 SFRSYM    DATA     BIT       SM0
      000000D2H   SFRSYM    DATA     BYTE      TH4
      000000D2H   SFRSYM    DATA     BYTE      T4H
      0000008AH   SFRSYM    DATA     BYTE      TL0
      00000098H.6 SFRSYM    DATA     BIT       SM1
      0000008BH   SFRSYM    DATA     BYTE      TL1
      00000098H.5 SFRSYM    DATA     BIT       SM2
      000000D7H   SFRSYM    DATA     BYTE      TL2
      000000D7H   SFRSYM    DATA     BYTE      T2L
      000000D5H   SFRSYM    DATA     BYTE      TL3
      000000D5H   SFRSYM    DATA     BYTE      T3L
      000000D3H   SFRSYM    DATA     BYTE      TL4
      000000D3H   SFRSYM    DATA     BYTE      T4L
LX51 LINKER/LOCATER V4.66.93.0                                                        06/09/2021  13:46:55  PAGE 19


      000000B8H.1 SFRSYM    DATA     BIT       PT0
      000000D0H.3 SFRSYM    DATA     BIT       RS0
      000000B8H.3 SFRSYM    DATA     BIT       PT1
      00000088H.4 SFRSYM    DATA     BIT       TR0
      000000D0H.4 SFRSYM    DATA     BIT       RS1
      000000C2H   SFRSYM    DATA     BYTE      IAP_DATA
      00000088H.6 SFRSYM    DATA     BIT       TR1
      000000C1H   SFRSYM    DATA     BYTE      WDT_CONTR
      000000B8H.0 SFRSYM    DATA     BIT       PX0
      000000B8H.2 SFRSYM    DATA     BIT       PX1
      0000009FH   SFRSYM    DATA     BYTE      IRTRIM
      000000F2H   SFRSYM    DATA     BYTE      PCA_PWM0
      000000F3H   SFRSYM    DATA     BYTE      PCA_PWM1
      000000F4H   SFRSYM    DATA     BYTE      PCA_PWM2
      00000083H   SFRSYM    DATA     BYTE      DPH
      000000D1H   SFRSYM    DATA     BYTE      T4T3M
      000000BEH   SFRSYM    DATA     BYTE      ADC_RESL
      00000082H   SFRSYM    DATA     BYTE      DPL
      000000CDH   SFRSYM    DATA     BYTE      SPSTAT
      000000B7H   SFRSYM    DATA     BYTE      IPH
      000000F1H   SFRSYM    DATA     BYTE      PWMSET
      0000009BH   SFRSYM    DATA     BYTE      S2BUF
      000000ADH   SFRSYM    DATA     BYTE      S3BUF
      00000098H.4 SFRSYM    DATA     BIT       REN
      00000085H   SFRSYM    DATA     BYTE      S4BUF
      0000009AH   SFRSYM    DATA     BYTE      S2CON
      000000E3H   SFRSYM    DATA     BYTE      DPS
      000000ACH   SFRSYM    DATA     BYTE      S3CON
      00000084H   SFRSYM    DATA     BYTE      S4CON
      000000EFH   SFRSYM    DATA     BYTE      AUXINTIF
      000000B9H   SFRSYM    DATA     BYTE      SADEN
      000000B0H.0 SFRSYM    DATA     BIT       RXD
      000000A9H   SFRSYM    DATA     BYTE      SADDR
      000000B0H.1 SFRSYM    DATA     BIT       TXD
      000000F0H.0 SFRSYM    DATA     BIT       B0
      000000F0H.1 SFRSYM    DATA     BIT       B1
      000000C6H   SFRSYM    DATA     BYTE      IAP_TRIG
      000000A2H   SFRSYM    DATA     BYTE      AUXR1
      000000F0H.2 SFRSYM    DATA     BIT       B2
      000000F0H.3 SFRSYM    DATA     BIT       B3
      000000F0H.4 SFRSYM    DATA     BIT       B4
      000000D0H.5 SFRSYM    DATA     BIT       F0
      0000009DH   SFRSYM    DATA     BYTE      IRCBAND
      000000F0H.5 SFRSYM    DATA     BIT       B5
      000000D0H.1 SFRSYM    DATA     BIT       F1
      0000008FH   SFRSYM    DATA     BYTE      INT_CLKO
      000000F0H.6 SFRSYM    DATA     BIT       B6
      000000E0H.0 SFRSYM    DATA     BIT       ACC0
      000000F0H.7 SFRSYM    DATA     BIT       B7
      000000E0H.1 SFRSYM    DATA     BIT       ACC1
      000000E0H.2 SFRSYM    DATA     BIT       ACC2
      000000E0H.3 SFRSYM    DATA     BIT       ACC3
      000000D0H   SFRSYM    DATA     BYTE      PSW
      000000E0H.4 SFRSYM    DATA     BIT       ACC4
      000000E0H.5 SFRSYM    DATA     BIT       ACC5
      000000D8H.0 SFRSYM    DATA     BIT       CCF0
      000000E0H.6 SFRSYM    DATA     BIT       ACC6
      000000D8H.1 SFRSYM    DATA     BIT       CCF1
      000000CFH   SFRSYM    DATA     BYTE      SPDAT
      00000094H   SFRSYM    DATA     BYTE      P0M0

      01000C5CH   BLOCK     CODE     ---       LVL=0
      00000006H   SYMBOL    DATA     WORD      ms
      01000C5CH   BLOCK     CODE     NEAR LAB  LVL=1
      00000004H   SYMBOL    DATA     WORD      i
LX51 LINKER/LOCATER V4.66.93.0                                                        06/09/2021  13:46:55  PAGE 20


      ---         BLOCKEND  ---      ---       LVL=1
      01000C5CH   LINE      CODE     ---       #24
      01000C5CH   LINE      CODE     ---       #25
      01000C5CH   LINE      CODE     ---       #27
      01000C5CH   LINE      CODE     ---       #28
      01000C60H   LINE      CODE     ---       #29
      01000C69H   LINE      CODE     ---       #30
      01000C72H   LINE      CODE     ---       #31
      ---         BLOCKEND  ---      ---       LVL=0

      ---         MODULE    ---      ---       STC8A_EXTI
      01000BF1H   PUBLIC    CODE     ---       _Ext_Inilize
      000000E0H.7 SFRSYM    DATA     BIT       ACC7
      000000D8H.2 SFRSYM    DATA     BIT       CCF2
      00000093H   SFRSYM    DATA     BYTE      P0M1
      00000092H   SFRSYM    DATA     BYTE      P1M0
      000000D8H.3 SFRSYM    DATA     BIT       CCF3
      00000096H   SFRSYM    DATA     BYTE      P2M0
      00000091H   SFRSYM    DATA     BYTE      P1M1
      00000080H   SFRSYM    DATA     BYTE      P0
      000000B2H   SFRSYM    DATA     BYTE      P3M0
      00000095H   SFRSYM    DATA     BYTE      P2M1
      00000090H   SFRSYM    DATA     BYTE      P1
      000000B4H   SFRSYM    DATA     BYTE      P4M0
      000000B1H   SFRSYM    DATA     BYTE      P3M1
      000000A0H   SFRSYM    DATA     BYTE      P2
      000000CAH   SFRSYM    DATA     BYTE      P5M0
      000000B3H   SFRSYM    DATA     BYTE      P4M1
      000000B0H   SFRSYM    DATA     BYTE      P3
      000000ABH   SFRSYM    DATA     BYTE      WKTCH
      000000B0H.4 SFRSYM    DATA     BIT       T0
      000000D0H.6 SFRSYM    DATA     BIT       AC
      000000CCH   SFRSYM    DATA     BYTE      P6M0
      000000C9H   SFRSYM    DATA     BYTE      P5M1
      000000C0H   SFRSYM    DATA     BYTE      P4
      000000B0H.5 SFRSYM    DATA     BIT       CLKOUT0
      000000B0H.5 SFRSYM    DATA     BIT       T1
      000000E2H   SFRSYM    DATA     BYTE      P7M0
      000000CBH   SFRSYM    DATA     BYTE      P6M1
      000000C8H   SFRSYM    DATA     BYTE      P5
      000000A8H.7 SFRSYM    DATA     BIT       EA
      000000B0H.4 SFRSYM    DATA     BIT       CLKOUT1
      000000E8H   SFRSYM    DATA     BYTE      P6
      000000E1H   SFRSYM    DATA     BYTE      P7M1
      00000090H.1 SFRSYM    DATA     BIT       CCP0
      000000F8H   SFRSYM    DATA     BYTE      P7
      000000AAH   SFRSYM    DATA     BYTE      WKTCL
      00000090H.0 SFRSYM    DATA     BIT       CCP1
      000000CEH   SFRSYM    DATA     BYTE      SPCTL
      000000B0H.7 SFRSYM    DATA     BIT       CCP2
      000000D8H.7 SFRSYM    DATA     BIT       CF
      000000F9H   SFRSYM    DATA     BYTE      CH
      000000A2H   SFRSYM    DATA     BYTE      P_SW1
      000000BAH   SFRSYM    DATA     BYTE      P_SW2
      000000A8H.5 SFRSYM    DATA     BIT       EADC
      000000E5H   SFRSYM    DATA     BYTE      DPH1
      000000A8H   SFRSYM    DATA     BYTE      IE
      000000E9H   SFRSYM    DATA     BYTE      CL
      000000C5H   SFRSYM    DATA     BYTE      IAP_CMD
      000000FAH   SFRSYM    DATA     BYTE      CCAP0H
      000000FBH   SFRSYM    DATA     BYTE      CCAP1H
      000000E4H   SFRSYM    DATA     BYTE      DPL1
      000000FCH   SFRSYM    DATA     BYTE      CCAP2H
      000000BDH   SFRSYM    DATA     BYTE      ADC_RES
      000000B6H   SFRSYM    DATA     BYTE      IP2H
LX51 LINKER/LOCATER V4.66.93.0                                                        06/09/2021  13:46:55  PAGE 21


      000000EEH   SFRSYM    DATA     BYTE      IP3H
      000000EAH   SFRSYM    DATA     BYTE      CCAP0L
      000000D8H.6 SFRSYM    DATA     BIT       CR
      000000AEH   SFRSYM    DATA     BYTE      TA
      000000B0H.7 SFRSYM    DATA     BIT       RD
      000000EBH   SFRSYM    DATA     BYTE      CCAP1L
      000000DAH   SFRSYM    DATA     BYTE      CCAPM0
      000000ECH   SFRSYM    DATA     BYTE      CCAP2L
      000000DBH   SFRSYM    DATA     BYTE      CCAPM1
      000000A8H.4 SFRSYM    DATA     BIT       ES
      000000DCH   SFRSYM    DATA     BYTE      CCAPM2
      000000B8H.5 SFRSYM    DATA     BIT       PADC
      000000B8H   SFRSYM    DATA     BYTE      IP
      000000DEH   SFRSYM    DATA     BYTE      ADCCFG
      00000098H.0 SFRSYM    DATA     BIT       RI
      000000B0H.2 SFRSYM    DATA     BIT       INT0
      000000D0H.7 SFRSYM    DATA     BIT       CY
      00000098H.1 SFRSYM    DATA     BIT       TI
      000000B0H.3 SFRSYM    DATA     BIT       INT1
      000000B0H.6 SFRSYM    DATA     BIT       INT2
      000000B0H.7 SFRSYM    DATA     BIT       INT3
      000000B0H.0 SFRSYM    DATA     BIT       INT4
      000000C3H   SFRSYM    DATA     BYTE      IAP_ADDRH
      00000090H.0 SFRSYM    DATA     BIT       RXD2
      00000090H.1 SFRSYM    DATA     BIT       TXD2
      000000B8H.4 SFRSYM    DATA     BIT       PS
      00000081H   SFRSYM    DATA     BYTE      SP
      000000D9H   SFRSYM    DATA     BYTE      CMOD
      000000D8H   SFRSYM    DATA     BYTE      CCON
      000000C4H   SFRSYM    DATA     BYTE      IAP_ADDRL
      000000D0H.2 SFRSYM    DATA     BIT       OV
      000000B8H.7 SFRSYM    DATA     BIT       PPCA
      0000009EH   SFRSYM    DATA     BYTE      LIRTRIM
      000000E6H   SFRSYM    DATA     BYTE      CMPCR1
      000000B0H.6 SFRSYM    DATA     BIT       WR
      000000E7H   SFRSYM    DATA     BYTE      CMPCR2
      000000A8H.6 SFRSYM    DATA     BIT       ELVD
      00000080H.0 SFRSYM    DATA     BIT       P00
      00000090H.0 SFRSYM    DATA     BIT       P10
      00000080H.1 SFRSYM    DATA     BIT       P01
      000000BCH   SFRSYM    DATA     BYTE      ADC_CONTR
      00000099H   SFRSYM    DATA     BYTE      SBUF
      00000087H   SFRSYM    DATA     BYTE      PCON
      000000A0H.0 SFRSYM    DATA     BIT       P20
      00000090H.1 SFRSYM    DATA     BIT       P11
      00000080H.2 SFRSYM    DATA     BIT       P02
      000000B0H.0 SFRSYM    DATA     BIT       P30
      000000A0H.1 SFRSYM    DATA     BIT       P21
      00000090H.2 SFRSYM    DATA     BIT       P12
      00000080H.3 SFRSYM    DATA     BIT       P03
      000000F5H   SFRSYM    DATA     BYTE      IAP_TPS
      000000C0H.0 SFRSYM    DATA     BIT       P40
      000000B0H.1 SFRSYM    DATA     BIT       P31
      000000A0H.2 SFRSYM    DATA     BIT       P22
      00000090H.3 SFRSYM    DATA     BIT       P13
      00000080H.4 SFRSYM    DATA     BIT       P04
      00000098H   SFRSYM    DATA     BYTE      SCON
      000000C8H.0 SFRSYM    DATA     BIT       P50
      000000C0H.1 SFRSYM    DATA     BIT       P41
      000000B0H.2 SFRSYM    DATA     BIT       P32
      000000A0H.3 SFRSYM    DATA     BIT       P23
      00000090H.4 SFRSYM    DATA     BIT       P14
      00000080H.5 SFRSYM    DATA     BIT       P05
      00000089H   SFRSYM    DATA     BYTE      TMOD
      00000088H   SFRSYM    DATA     BYTE      TCON
LX51 LINKER/LOCATER V4.66.93.0                                                        06/09/2021  13:46:55  PAGE 22


      000000E8H.0 SFRSYM    DATA     BIT       P60
      000000C8H.1 SFRSYM    DATA     BIT       P51
      000000C0H.2 SFRSYM    DATA     BIT       P42
      000000B0H.3 SFRSYM    DATA     BIT       P33
      000000A0H.4 SFRSYM    DATA     BIT       P24
      00000090H.5 SFRSYM    DATA     BIT       P15
      00000080H.6 SFRSYM    DATA     BIT       P06
      000000F8H.0 SFRSYM    DATA     BIT       P70
      000000E8H.1 SFRSYM    DATA     BIT       P61
      000000C8H.2 SFRSYM    DATA     BIT       P52
      000000C0H.3 SFRSYM    DATA     BIT       P43
      000000B0H.4 SFRSYM    DATA     BIT       P34
      000000A0H.5 SFRSYM    DATA     BIT       P25
      00000090H.6 SFRSYM    DATA     BIT       P16
      00000080H.7 SFRSYM    DATA     BIT       P07
      000000B8H.6 SFRSYM    DATA     BIT       PLVD
      000000F8H.1 SFRSYM    DATA     BIT       P71
      000000E8H.2 SFRSYM    DATA     BIT       P62
      000000C8H.3 SFRSYM    DATA     BIT       P53
      000000C0H.4 SFRSYM    DATA     BIT       P44
      000000B0H.5 SFRSYM    DATA     BIT       P35
      000000A0H.6 SFRSYM    DATA     BIT       P26
      00000090H.7 SFRSYM    DATA     BIT       P17
      000000F8H.2 SFRSYM    DATA     BIT       P72
      000000E8H.3 SFRSYM    DATA     BIT       P63
      000000C8H.4 SFRSYM    DATA     BIT       P54
      000000C0H.5 SFRSYM    DATA     BIT       P45
      000000B0H.6 SFRSYM    DATA     BIT       P36
      000000A0H.7 SFRSYM    DATA     BIT       P27
      000000F8H.3 SFRSYM    DATA     BIT       P73
      000000E8H.4 SFRSYM    DATA     BIT       P64
      000000C8H.5 SFRSYM    DATA     BIT       P55
      000000C0H.6 SFRSYM    DATA     BIT       P46
      000000B0H.7 SFRSYM    DATA     BIT       P37
      000000F8H.4 SFRSYM    DATA     BIT       P74
      000000E8H.5 SFRSYM    DATA     BIT       P65
      000000C8H.6 SFRSYM    DATA     BIT       P56
      000000C0H.7 SFRSYM    DATA     BIT       P47
      000000F8H.5 SFRSYM    DATA     BIT       P75
      000000E8H.6 SFRSYM    DATA     BIT       P66
      000000C8H.7 SFRSYM    DATA     BIT       P57
      000000F8H.6 SFRSYM    DATA     BIT       P76
      000000E8H.7 SFRSYM    DATA     BIT       P67
      000000F8H.7 SFRSYM    DATA     BIT       P77
      00000088H.1 SFRSYM    DATA     BIT       IE0
      000000A1H   SFRSYM    DATA     BYTE      BUS_SPEED
      00000088H.3 SFRSYM    DATA     BIT       IE1
      000000AFH   SFRSYM    DATA     BYTE      IE2
      000000F0H   SFRSYM    DATA     BYTE      B
      0000008EH   SFRSYM    DATA     BYTE      AUXR
      000000C7H   SFRSYM    DATA     BYTE      IAP_CONTR
      000000F6H   SFRSYM    DATA     BYTE      PWMCFG
      000000E0H   SFRSYM    DATA     BYTE      ACC
      000000A8H.1 SFRSYM    DATA     BIT       ET0
      000000A8H.3 SFRSYM    DATA     BIT       ET1
      00000088H.5 SFRSYM    DATA     BIT       TF0
      00000088H.7 SFRSYM    DATA     BIT       TF1
      000000FFH   SFRSYM    DATA     BYTE      RSTCFG
      000000B5H   SFRSYM    DATA     BYTE      IP2
      00000098H.2 SFRSYM    DATA     BIT       RB8
      000000DFH   SFRSYM    DATA     BYTE      IP3
      0000008CH   SFRSYM    DATA     BYTE      TH0
      000000A8H.0 SFRSYM    DATA     BIT       EX0
      00000088H.0 SFRSYM    DATA     BIT       IT0
      0000008DH   SFRSYM    DATA     BYTE      TH1
LX51 LINKER/LOCATER V4.66.93.0                                                        06/09/2021  13:46:55  PAGE 23


      000000A8H.2 SFRSYM    DATA     BIT       EX1
      00000098H.3 SFRSYM    DATA     BIT       TB8
      00000088H.2 SFRSYM    DATA     BIT       IT1
      000000D6H   SFRSYM    DATA     BYTE      TH2
      000000D6H   SFRSYM    DATA     BYTE      T2H
      000000D0H.0 SFRSYM    DATA     BIT       P
      000000D4H   SFRSYM    DATA     BYTE      TH3
      000000D4H   SFRSYM    DATA     BYTE      T3H
      00000098H.7 SFRSYM    DATA     BIT       SM0
      000000D2H   SFRSYM    DATA     BYTE      TH4
      000000D2H   SFRSYM    DATA     BYTE      T4H
      0000008AH   SFRSYM    DATA     BYTE      TL0
      00000098H.6 SFRSYM    DATA     BIT       SM1
      0000008BH   SFRSYM    DATA     BYTE      TL1
      00000098H.5 SFRSYM    DATA     BIT       SM2
      000000D7H   SFRSYM    DATA     BYTE      TL2
      000000D7H   SFRSYM    DATA     BYTE      T2L
      000000D5H   SFRSYM    DATA     BYTE      TL3
      000000D5H   SFRSYM    DATA     BYTE      T3L
      000000D3H   SFRSYM    DATA     BYTE      TL4
      000000D3H   SFRSYM    DATA     BYTE      T4L
      000000B8H.1 SFRSYM    DATA     BIT       PT0
      000000D0H.3 SFRSYM    DATA     BIT       RS0
      000000B8H.3 SFRSYM    DATA     BIT       PT1
      00000088H.4 SFRSYM    DATA     BIT       TR0
      000000D0H.4 SFRSYM    DATA     BIT       RS1
      000000C2H   SFRSYM    DATA     BYTE      IAP_DATA
      00000088H.6 SFRSYM    DATA     BIT       TR1
      000000C1H   SFRSYM    DATA     BYTE      WDT_CONTR
      000000B8H.0 SFRSYM    DATA     BIT       PX0
      000000B8H.2 SFRSYM    DATA     BIT       PX1
      0000009FH   SFRSYM    DATA     BYTE      IRTRIM
      000000F2H   SFRSYM    DATA     BYTE      PCA_PWM0
      000000F3H   SFRSYM    DATA     BYTE      PCA_PWM1
      000000F4H   SFRSYM    DATA     BYTE      PCA_PWM2
      00000083H   SFRSYM    DATA     BYTE      DPH
      000000D1H   SFRSYM    DATA     BYTE      T4T3M
      000000BEH   SFRSYM    DATA     BYTE      ADC_RESL
      00000082H   SFRSYM    DATA     BYTE      DPL
      000000CDH   SFRSYM    DATA     BYTE      SPSTAT
      000000B7H   SFRSYM    DATA     BYTE      IPH
      000000F1H   SFRSYM    DATA     BYTE      PWMSET
      0000009BH   SFRSYM    DATA     BYTE      S2BUF
      000000ADH   SFRSYM    DATA     BYTE      S3BUF
      00000098H.4 SFRSYM    DATA     BIT       REN
      00000085H   SFRSYM    DATA     BYTE      S4BUF
      0000009AH   SFRSYM    DATA     BYTE      S2CON
      000000E3H   SFRSYM    DATA     BYTE      DPS
      000000ACH   SFRSYM    DATA     BYTE      S3CON
      00000084H   SFRSYM    DATA     BYTE      S4CON
      000000EFH   SFRSYM    DATA     BYTE      AUXINTIF
      000000B9H   SFRSYM    DATA     BYTE      SADEN
      000000B0H.0 SFRSYM    DATA     BIT       RXD
      000000A9H   SFRSYM    DATA     BYTE      SADDR
      000000B0H.1 SFRSYM    DATA     BIT       TXD
      000000F0H.0 SFRSYM    DATA     BIT       B0
      000000F0H.1 SFRSYM    DATA     BIT       B1
      000000C6H   SFRSYM    DATA     BYTE      IAP_TRIG
      000000A2H   SFRSYM    DATA     BYTE      AUXR1
      000000F0H.2 SFRSYM    DATA     BIT       B2
      000000F0H.3 SFRSYM    DATA     BIT       B3
      000000F0H.4 SFRSYM    DATA     BIT       B4
      000000D0H.5 SFRSYM    DATA     BIT       F0
      0000009DH   SFRSYM    DATA     BYTE      IRCBAND
      000000F0H.5 SFRSYM    DATA     BIT       B5
LX51 LINKER/LOCATER V4.66.93.0                                                        06/09/2021  13:46:55  PAGE 24


      000000D0H.1 SFRSYM    DATA     BIT       F1
      0000008FH   SFRSYM    DATA     BYTE      INT_CLKO
      000000F0H.6 SFRSYM    DATA     BIT       B6
      000000E0H.0 SFRSYM    DATA     BIT       ACC0
      000000F0H.7 SFRSYM    DATA     BIT       B7
      000000E0H.1 SFRSYM    DATA     BIT       ACC1
      000000E0H.2 SFRSYM    DATA     BIT       ACC2
      000000E0H.3 SFRSYM    DATA     BIT       ACC3
      000000D0H   SFRSYM    DATA     BYTE      PSW
      000000E0H.4 SFRSYM    DATA     BIT       ACC4
      000000E0H.5 SFRSYM    DATA     BIT       ACC5
      000000D8H.0 SFRSYM    DATA     BIT       CCF0
      000000E0H.6 SFRSYM    DATA     BIT       ACC6
      000000D8H.1 SFRSYM    DATA     BIT       CCF1
      000000CFH   SFRSYM    DATA     BYTE      SPDAT
      00000094H   SFRSYM    DATA     BYTE      P0M0

      01000BF1H   BLOCK     CODE     ---       LVL=0
      00000007H   SYMBOL    DATA     BYTE      EXT
      00000001H   SYMBOL    DATA     ---       INTx
      01000BF1H   LINE      CODE     ---       #22
      01000BF1H   LINE      CODE     ---       #23
      01000BF1H   LINE      CODE     ---       #24
      01000BFEH   LINE      CODE     ---       #26
      01000C01H   LINE      CODE     ---       #27
      01000C01H   LINE      CODE     ---       #28
      01000C03H   LINE      CODE     ---       #29
      01000C0EH   LINE      CODE     ---       #30
      01000C11H   LINE      CODE     ---       #31
      01000C11H   LINE      CODE     ---       #33
      01000C16H   LINE      CODE     ---       #34
      01000C16H   LINE      CODE     ---       #35
      01000C18H   LINE      CODE     ---       #36
      01000C23H   LINE      CODE     ---       #37
      01000C26H   LINE      CODE     ---       #38
      01000C26H   LINE      CODE     ---       #39
      01000C28H   LINE      CODE     ---       #40
      ---         BLOCKEND  ---      ---       LVL=0

      ---         MODULE    ---      ---       STC8A_GPIO
      010003E2H   PUBLIC    CODE     ---       _GPIO_Inilize
      000000E0H.7 SFRSYM    DATA     BIT       ACC7
      000000D8H.2 SFRSYM    DATA     BIT       CCF2
      00000093H   SFRSYM    DATA     BYTE      P0M1
      00000092H   SFRSYM    DATA     BYTE      P1M0
      000000D8H.3 SFRSYM    DATA     BIT       CCF3
      00000096H   SFRSYM    DATA     BYTE      P2M0
      00000091H   SFRSYM    DATA     BYTE      P1M1
      00000080H   SFRSYM    DATA     BYTE      P0
      000000B2H   SFRSYM    DATA     BYTE      P3M0
      00000095H   SFRSYM    DATA     BYTE      P2M1
      00000090H   SFRSYM    DATA     BYTE      P1
      000000B4H   SFRSYM    DATA     BYTE      P4M0
      000000B1H   SFRSYM    DATA     BYTE      P3M1
      000000A0H   SFRSYM    DATA     BYTE      P2
      000000CAH   SFRSYM    DATA     BYTE      P5M0
      000000B3H   SFRSYM    DATA     BYTE      P4M1
      000000B0H   SFRSYM    DATA     BYTE      P3
      000000ABH   SFRSYM    DATA     BYTE      WKTCH
      000000B0H.4 SFRSYM    DATA     BIT       T0
      000000D0H.6 SFRSYM    DATA     BIT       AC
      000000CCH   SFRSYM    DATA     BYTE      P6M0
      000000C9H   SFRSYM    DATA     BYTE      P5M1
      000000C0H   SFRSYM    DATA     BYTE      P4
      000000B0H.5 SFRSYM    DATA     BIT       CLKOUT0
LX51 LINKER/LOCATER V4.66.93.0                                                        06/09/2021  13:46:55  PAGE 25


      000000B0H.5 SFRSYM    DATA     BIT       T1
      000000E2H   SFRSYM    DATA     BYTE      P7M0
      000000CBH   SFRSYM    DATA     BYTE      P6M1
      000000C8H   SFRSYM    DATA     BYTE      P5
      000000A8H.7 SFRSYM    DATA     BIT       EA
      000000B0H.4 SFRSYM    DATA     BIT       CLKOUT1
      000000E8H   SFRSYM    DATA     BYTE      P6
      000000E1H   SFRSYM    DATA     BYTE      P7M1
      00000090H.1 SFRSYM    DATA     BIT       CCP0
      000000F8H   SFRSYM    DATA     BYTE      P7
      000000AAH   SFRSYM    DATA     BYTE      WKTCL
      00000090H.0 SFRSYM    DATA     BIT       CCP1
      000000CEH   SFRSYM    DATA     BYTE      SPCTL
      000000B0H.7 SFRSYM    DATA     BIT       CCP2
      000000D8H.7 SFRSYM    DATA     BIT       CF
      000000F9H   SFRSYM    DATA     BYTE      CH
      000000A2H   SFRSYM    DATA     BYTE      P_SW1
      000000BAH   SFRSYM    DATA     BYTE      P_SW2
      000000A8H.5 SFRSYM    DATA     BIT       EADC
      000000E5H   SFRSYM    DATA     BYTE      DPH1
      000000A8H   SFRSYM    DATA     BYTE      IE
      000000E9H   SFRSYM    DATA     BYTE      CL
      000000C5H   SFRSYM    DATA     BYTE      IAP_CMD
      000000FAH   SFRSYM    DATA     BYTE      CCAP0H
      000000FBH   SFRSYM    DATA     BYTE      CCAP1H
      000000E4H   SFRSYM    DATA     BYTE      DPL1
      000000FCH   SFRSYM    DATA     BYTE      CCAP2H
      000000BDH   SFRSYM    DATA     BYTE      ADC_RES
      000000B6H   SFRSYM    DATA     BYTE      IP2H
      000000EEH   SFRSYM    DATA     BYTE      IP3H
      000000EAH   SFRSYM    DATA     BYTE      CCAP0L
      000000D8H.6 SFRSYM    DATA     BIT       CR
      000000AEH   SFRSYM    DATA     BYTE      TA
      000000B0H.7 SFRSYM    DATA     BIT       RD
      000000EBH   SFRSYM    DATA     BYTE      CCAP1L
      000000DAH   SFRSYM    DATA     BYTE      CCAPM0
      000000ECH   SFRSYM    DATA     BYTE      CCAP2L
      000000DBH   SFRSYM    DATA     BYTE      CCAPM1
      000000A8H.4 SFRSYM    DATA     BIT       ES
      000000DCH   SFRSYM    DATA     BYTE      CCAPM2
      000000B8H.5 SFRSYM    DATA     BIT       PADC
      000000B8H   SFRSYM    DATA     BYTE      IP
      000000DEH   SFRSYM    DATA     BYTE      ADCCFG
      00000098H.0 SFRSYM    DATA     BIT       RI
      000000B0H.2 SFRSYM    DATA     BIT       INT0
      000000D0H.7 SFRSYM    DATA     BIT       CY
      00000098H.1 SFRSYM    DATA     BIT       TI
      000000B0H.3 SFRSYM    DATA     BIT       INT1
      000000B0H.6 SFRSYM    DATA     BIT       INT2
      000000B0H.7 SFRSYM    DATA     BIT       INT3
      000000B0H.0 SFRSYM    DATA     BIT       INT4
      000000C3H   SFRSYM    DATA     BYTE      IAP_ADDRH
      00000090H.0 SFRSYM    DATA     BIT       RXD2
      00000090H.1 SFRSYM    DATA     BIT       TXD2
      000000B8H.4 SFRSYM    DATA     BIT       PS
      00000081H   SFRSYM    DATA     BYTE      SP
      000000D9H   SFRSYM    DATA     BYTE      CMOD
      000000D8H   SFRSYM    DATA     BYTE      CCON
      000000C4H   SFRSYM    DATA     BYTE      IAP_ADDRL
      000000D0H.2 SFRSYM    DATA     BIT       OV
      000000B8H.7 SFRSYM    DATA     BIT       PPCA
      0000009EH   SFRSYM    DATA     BYTE      LIRTRIM
      000000E6H   SFRSYM    DATA     BYTE      CMPCR1
      000000B0H.6 SFRSYM    DATA     BIT       WR
      000000E7H   SFRSYM    DATA     BYTE      CMPCR2
LX51 LINKER/LOCATER V4.66.93.0                                                        06/09/2021  13:46:55  PAGE 26


      000000A8H.6 SFRSYM    DATA     BIT       ELVD
      00000080H.0 SFRSYM    DATA     BIT       P00
      00000090H.0 SFRSYM    DATA     BIT       P10
      00000080H.1 SFRSYM    DATA     BIT       P01
      000000BCH   SFRSYM    DATA     BYTE      ADC_CONTR
      00000099H   SFRSYM    DATA     BYTE      SBUF
      00000087H   SFRSYM    DATA     BYTE      PCON
      000000A0H.0 SFRSYM    DATA     BIT       P20
      00000090H.1 SFRSYM    DATA     BIT       P11
      00000080H.2 SFRSYM    DATA     BIT       P02
      000000B0H.0 SFRSYM    DATA     BIT       P30
      000000A0H.1 SFRSYM    DATA     BIT       P21
      00000090H.2 SFRSYM    DATA     BIT       P12
      00000080H.3 SFRSYM    DATA     BIT       P03
      000000F5H   SFRSYM    DATA     BYTE      IAP_TPS
      000000C0H.0 SFRSYM    DATA     BIT       P40
      000000B0H.1 SFRSYM    DATA     BIT       P31
      000000A0H.2 SFRSYM    DATA     BIT       P22
      00000090H.3 SFRSYM    DATA     BIT       P13
      00000080H.4 SFRSYM    DATA     BIT       P04
      00000098H   SFRSYM    DATA     BYTE      SCON
      000000C8H.0 SFRSYM    DATA     BIT       P50
      000000C0H.1 SFRSYM    DATA     BIT       P41
      000000B0H.2 SFRSYM    DATA     BIT       P32
      000000A0H.3 SFRSYM    DATA     BIT       P23
      00000090H.4 SFRSYM    DATA     BIT       P14
      00000080H.5 SFRSYM    DATA     BIT       P05
      00000089H   SFRSYM    DATA     BYTE      TMOD
      00000088H   SFRSYM    DATA     BYTE      TCON
      000000E8H.0 SFRSYM    DATA     BIT       P60
      000000C8H.1 SFRSYM    DATA     BIT       P51
      000000C0H.2 SFRSYM    DATA     BIT       P42
      000000B0H.3 SFRSYM    DATA     BIT       P33
      000000A0H.4 SFRSYM    DATA     BIT       P24
      00000090H.5 SFRSYM    DATA     BIT       P15
      00000080H.6 SFRSYM    DATA     BIT       P06
      000000F8H.0 SFRSYM    DATA     BIT       P70
      000000E8H.1 SFRSYM    DATA     BIT       P61
      000000C8H.2 SFRSYM    DATA     BIT       P52
      000000C0H.3 SFRSYM    DATA     BIT       P43
      000000B0H.4 SFRSYM    DATA     BIT       P34
      000000A0H.5 SFRSYM    DATA     BIT       P25
      00000090H.6 SFRSYM    DATA     BIT       P16
      00000080H.7 SFRSYM    DATA     BIT       P07
      000000B8H.6 SFRSYM    DATA     BIT       PLVD
      000000F8H.1 SFRSYM    DATA     BIT       P71
      000000E8H.2 SFRSYM    DATA     BIT       P62
      000000C8H.3 SFRSYM    DATA     BIT       P53
      000000C0H.4 SFRSYM    DATA     BIT       P44
      000000B0H.5 SFRSYM    DATA     BIT       P35
      000000A0H.6 SFRSYM    DATA     BIT       P26
      00000090H.7 SFRSYM    DATA     BIT       P17
      000000F8H.2 SFRSYM    DATA     BIT       P72
      000000E8H.3 SFRSYM    DATA     BIT       P63
      000000C8H.4 SFRSYM    DATA     BIT       P54
      000000C0H.5 SFRSYM    DATA     BIT       P45
      000000B0H.6 SFRSYM    DATA     BIT       P36
      000000A0H.7 SFRSYM    DATA     BIT       P27
      000000F8H.3 SFRSYM    DATA     BIT       P73
      000000E8H.4 SFRSYM    DATA     BIT       P64
      000000C8H.5 SFRSYM    DATA     BIT       P55
      000000C0H.6 SFRSYM    DATA     BIT       P46
      000000B0H.7 SFRSYM    DATA     BIT       P37
      000000F8H.4 SFRSYM    DATA     BIT       P74
      000000E8H.5 SFRSYM    DATA     BIT       P65
LX51 LINKER/LOCATER V4.66.93.0                                                        06/09/2021  13:46:55  PAGE 27


      000000C8H.6 SFRSYM    DATA     BIT       P56
      000000C0H.7 SFRSYM    DATA     BIT       P47
      000000F8H.5 SFRSYM    DATA     BIT       P75
      000000E8H.6 SFRSYM    DATA     BIT       P66
      000000C8H.7 SFRSYM    DATA     BIT       P57
      000000F8H.6 SFRSYM    DATA     BIT       P76
      000000E8H.7 SFRSYM    DATA     BIT       P67
      000000F8H.7 SFRSYM    DATA     BIT       P77
      00000088H.1 SFRSYM    DATA     BIT       IE0
      000000A1H   SFRSYM    DATA     BYTE      BUS_SPEED
      00000088H.3 SFRSYM    DATA     BIT       IE1
      000000AFH   SFRSYM    DATA     BYTE      IE2
      000000F0H   SFRSYM    DATA     BYTE      B
      0000008EH   SFRSYM    DATA     BYTE      AUXR
      000000C7H   SFRSYM    DATA     BYTE      IAP_CONTR
      000000F6H   SFRSYM    DATA     BYTE      PWMCFG
      000000E0H   SFRSYM    DATA     BYTE      ACC
      000000A8H.1 SFRSYM    DATA     BIT       ET0
      000000A8H.3 SFRSYM    DATA     BIT       ET1
      00000088H.5 SFRSYM    DATA     BIT       TF0
      00000088H.7 SFRSYM    DATA     BIT       TF1
      000000FFH   SFRSYM    DATA     BYTE      RSTCFG
      000000B5H   SFRSYM    DATA     BYTE      IP2
      00000098H.2 SFRSYM    DATA     BIT       RB8
      000000DFH   SFRSYM    DATA     BYTE      IP3
      0000008CH   SFRSYM    DATA     BYTE      TH0
      000000A8H.0 SFRSYM    DATA     BIT       EX0
      00000088H.0 SFRSYM    DATA     BIT       IT0
      0000008DH   SFRSYM    DATA     BYTE      TH1
      000000A8H.2 SFRSYM    DATA     BIT       EX1
      00000098H.3 SFRSYM    DATA     BIT       TB8
      00000088H.2 SFRSYM    DATA     BIT       IT1
      000000D6H   SFRSYM    DATA     BYTE      TH2
      000000D6H   SFRSYM    DATA     BYTE      T2H
      000000D0H.0 SFRSYM    DATA     BIT       P
      000000D4H   SFRSYM    DATA     BYTE      TH3
      000000D4H   SFRSYM    DATA     BYTE      T3H
      00000098H.7 SFRSYM    DATA     BIT       SM0
      000000D2H   SFRSYM    DATA     BYTE      TH4
      000000D2H   SFRSYM    DATA     BYTE      T4H
      0000008AH   SFRSYM    DATA     BYTE      TL0
      00000098H.6 SFRSYM    DATA     BIT       SM1
      0000008BH   SFRSYM    DATA     BYTE      TL1
      00000098H.5 SFRSYM    DATA     BIT       SM2
      000000D7H   SFRSYM    DATA     BYTE      TL2
      000000D7H   SFRSYM    DATA     BYTE      T2L
      000000D5H   SFRSYM    DATA     BYTE      TL3
      000000D5H   SFRSYM    DATA     BYTE      T3L
      000000D3H   SFRSYM    DATA     BYTE      TL4
      000000D3H   SFRSYM    DATA     BYTE      T4L
      000000B8H.1 SFRSYM    DATA     BIT       PT0
      000000D0H.3 SFRSYM    DATA     BIT       RS0
      000000B8H.3 SFRSYM    DATA     BIT       PT1
      00000088H.4 SFRSYM    DATA     BIT       TR0
      000000D0H.4 SFRSYM    DATA     BIT       RS1
      000000C2H   SFRSYM    DATA     BYTE      IAP_DATA
      00000088H.6 SFRSYM    DATA     BIT       TR1
      000000C1H   SFRSYM    DATA     BYTE      WDT_CONTR
      000000B8H.0 SFRSYM    DATA     BIT       PX0
      000000B8H.2 SFRSYM    DATA     BIT       PX1
      0000009FH   SFRSYM    DATA     BYTE      IRTRIM
      000000F2H   SFRSYM    DATA     BYTE      PCA_PWM0
      000000F3H   SFRSYM    DATA     BYTE      PCA_PWM1
      000000F4H   SFRSYM    DATA     BYTE      PCA_PWM2
      00000083H   SFRSYM    DATA     BYTE      DPH
LX51 LINKER/LOCATER V4.66.93.0                                                        06/09/2021  13:46:55  PAGE 28


      000000D1H   SFRSYM    DATA     BYTE      T4T3M
      000000BEH   SFRSYM    DATA     BYTE      ADC_RESL
      00000082H   SFRSYM    DATA     BYTE      DPL
      000000CDH   SFRSYM    DATA     BYTE      SPSTAT
      000000B7H   SFRSYM    DATA     BYTE      IPH
      000000F1H   SFRSYM    DATA     BYTE      PWMSET
      0000009BH   SFRSYM    DATA     BYTE      S2BUF
      000000ADH   SFRSYM    DATA     BYTE      S3BUF
      00000098H.4 SFRSYM    DATA     BIT       REN
      00000085H   SFRSYM    DATA     BYTE      S4BUF
      0000009AH   SFRSYM    DATA     BYTE      S2CON
      000000E3H   SFRSYM    DATA     BYTE      DPS
      000000ACH   SFRSYM    DATA     BYTE      S3CON
      00000084H   SFRSYM    DATA     BYTE      S4CON
      000000EFH   SFRSYM    DATA     BYTE      AUXINTIF
      000000B9H   SFRSYM    DATA     BYTE      SADEN
      000000B0H.0 SFRSYM    DATA     BIT       RXD
      000000A9H   SFRSYM    DATA     BYTE      SADDR
      000000B0H.1 SFRSYM    DATA     BIT       TXD
      000000F0H.0 SFRSYM    DATA     BIT       B0
      000000F0H.1 SFRSYM    DATA     BIT       B1
      000000C6H   SFRSYM    DATA     BYTE      IAP_TRIG
      000000A2H   SFRSYM    DATA     BYTE      AUXR1
      000000F0H.2 SFRSYM    DATA     BIT       B2
      000000F0H.3 SFRSYM    DATA     BIT       B3
      000000F0H.4 SFRSYM    DATA     BIT       B4
      000000D0H.5 SFRSYM    DATA     BIT       F0
      0000009DH   SFRSYM    DATA     BYTE      IRCBAND
      000000F0H.5 SFRSYM    DATA     BIT       B5
      000000D0H.1 SFRSYM    DATA     BIT       F1
      0000008FH   SFRSYM    DATA     BYTE      INT_CLKO
      000000F0H.6 SFRSYM    DATA     BIT       B6
      000000E0H.0 SFRSYM    DATA     BIT       ACC0
      000000F0H.7 SFRSYM    DATA     BIT       B7
      000000E0H.1 SFRSYM    DATA     BIT       ACC1
      000000E0H.2 SFRSYM    DATA     BIT       ACC2
      000000E0H.3 SFRSYM    DATA     BIT       ACC3
      000000D0H   SFRSYM    DATA     BYTE      PSW
      000000E0H.4 SFRSYM    DATA     BIT       ACC4
      000000E0H.5 SFRSYM    DATA     BIT       ACC5
      000000D8H.0 SFRSYM    DATA     BIT       CCF0
      000000E0H.6 SFRSYM    DATA     BIT       ACC6
      000000D8H.1 SFRSYM    DATA     BIT       CCF1
      000000CFH   SFRSYM    DATA     BYTE      SPDAT
      00000094H   SFRSYM    DATA     BYTE      P0M0

      010003E2H   BLOCK     CODE     ---       LVL=0
      00000007H   SYMBOL    DATA     BYTE      GPIO
      00000001H   SYMBOL    DATA     ---       GPIOx
      010003E2H   LINE      CODE     ---       #22
      010003E2H   LINE      CODE     ---       #23
      010003E2H   LINE      CODE     ---       #24
      010003EFH   LINE      CODE     ---       #25
      010003FFH   LINE      CODE     ---       #26
      01000402H   LINE      CODE     ---       #27
      01000402H   LINE      CODE     ---       #28
      01000410H   LINE      CODE     ---       #29
      01000422H   LINE      CODE     ---       #30
      01000434H   LINE      CODE     ---       #31
      01000446H   LINE      CODE     ---       #32
      01000446H   LINE      CODE     ---       #33
      0100044BH   LINE      CODE     ---       #34
      0100044BH   LINE      CODE     ---       #35
      0100045CH   LINE      CODE     ---       #36
      0100046CH   LINE      CODE     ---       #37
LX51 LINKER/LOCATER V4.66.93.0                                                        06/09/2021  13:46:55  PAGE 29


      0100047DH   LINE      CODE     ---       #38
      01000491H   LINE      CODE     ---       #39
      01000491H   LINE      CODE     ---       #40
      01000496H   LINE      CODE     ---       #41
      01000496H   LINE      CODE     ---       #42
      010004A7H   LINE      CODE     ---       #43
      010004B7H   LINE      CODE     ---       #44
      010004C8H   LINE      CODE     ---       #45
      010004DCH   LINE      CODE     ---       #46
      010004DCH   LINE      CODE     ---       #47
      010004E1H   LINE      CODE     ---       #48
      010004E1H   LINE      CODE     ---       #49
      010004F2H   LINE      CODE     ---       #50
      01000502H   LINE      CODE     ---       #51
      01000513H   LINE      CODE     ---       #52
      01000527H   LINE      CODE     ---       #53
      01000527H   LINE      CODE     ---       #54
      0100052CH   LINE      CODE     ---       #55
      0100052CH   LINE      CODE     ---       #56
      0100053DH   LINE      CODE     ---       #57
      0100054DH   LINE      CODE     ---       #58
      0100055EH   LINE      CODE     ---       #59
      01000572H   LINE      CODE     ---       #60
      01000572H   LINE      CODE     ---       #61
      01000577H   LINE      CODE     ---       #62
      01000577H   LINE      CODE     ---       #63
      01000588H   LINE      CODE     ---       #64
      01000598H   LINE      CODE     ---       #65
      010005A9H   LINE      CODE     ---       #66
      010005BDH   LINE      CODE     ---       #67
      010005BDH   LINE      CODE     ---       #68
      010005C2H   LINE      CODE     ---       #69
      010005C2H   LINE      CODE     ---       #70
      010005D3H   LINE      CODE     ---       #71
      010005E3H   LINE      CODE     ---       #72
      010005F4H   LINE      CODE     ---       #73
      01000608H   LINE      CODE     ---       #74
      01000608H   LINE      CODE     ---       #75
      0100060DH   LINE      CODE     ---       #76
      0100060DH   LINE      CODE     ---       #77
      01000620H   LINE      CODE     ---       #78
      01000631H   LINE      CODE     ---       #79
      01000642H   LINE      CODE     ---       #80
      01000656H   LINE      CODE     ---       #81
      01000656H   LINE      CODE     ---       #82
      01000658H   LINE      CODE     ---       #83
      ---         BLOCKEND  ---      ---       LVL=0

      ---         MODULE    ---      ---       STC8A_NVIC
      01000B1AH   PUBLIC    CODE     ---       _NVIC_UART1_Init
      0100005EH   PUBLIC    CODE     ---       _NVIC_INT4_Init
      01000C29H   PUBLIC    CODE     ---       _NVIC_INT3_Init
      01000C43H   PUBLIC    CODE     ---       _NVIC_INT2_Init
      01000ACDH   PUBLIC    CODE     ---       _NVIC_INT1_Init
      01000A80H   PUBLIC    CODE     ---       _NVIC_INT0_Init
      000000E0H.7 SFRSYM    DATA     BIT       ACC7
      000000D8H.2 SFRSYM    DATA     BIT       CCF2
      00000093H   SFRSYM    DATA     BYTE      P0M1
      00000092H   SFRSYM    DATA     BYTE      P1M0
      000000D8H.3 SFRSYM    DATA     BIT       CCF3
      00000096H   SFRSYM    DATA     BYTE      P2M0
      00000091H   SFRSYM    DATA     BYTE      P1M1
      00000080H   SFRSYM    DATA     BYTE      P0
      000000B2H   SFRSYM    DATA     BYTE      P3M0
      00000095H   SFRSYM    DATA     BYTE      P2M1
LX51 LINKER/LOCATER V4.66.93.0                                                        06/09/2021  13:46:55  PAGE 30


      00000090H   SFRSYM    DATA     BYTE      P1
      000000B4H   SFRSYM    DATA     BYTE      P4M0
      000000B1H   SFRSYM    DATA     BYTE      P3M1
      000000A0H   SFRSYM    DATA     BYTE      P2
      000000CAH   SFRSYM    DATA     BYTE      P5M0
      000000B3H   SFRSYM    DATA     BYTE      P4M1
      000000B0H   SFRSYM    DATA     BYTE      P3
      000000ABH   SFRSYM    DATA     BYTE      WKTCH
      000000B0H.4 SFRSYM    DATA     BIT       T0
      000000D0H.6 SFRSYM    DATA     BIT       AC
      000000CCH   SFRSYM    DATA     BYTE      P6M0
      000000C9H   SFRSYM    DATA     BYTE      P5M1
      000000C0H   SFRSYM    DATA     BYTE      P4
      000000B0H.5 SFRSYM    DATA     BIT       CLKOUT0
      000000B0H.5 SFRSYM    DATA     BIT       T1
      000000E2H   SFRSYM    DATA     BYTE      P7M0
      000000CBH   SFRSYM    DATA     BYTE      P6M1
      000000C8H   SFRSYM    DATA     BYTE      P5
      000000A8H.7 SFRSYM    DATA     BIT       EA
      000000B0H.4 SFRSYM    DATA     BIT       CLKOUT1
      000000E8H   SFRSYM    DATA     BYTE      P6
      000000E1H   SFRSYM    DATA     BYTE      P7M1
      00000090H.1 SFRSYM    DATA     BIT       CCP0
      000000F8H   SFRSYM    DATA     BYTE      P7
      000000AAH   SFRSYM    DATA     BYTE      WKTCL
      00000090H.0 SFRSYM    DATA     BIT       CCP1
      000000CEH   SFRSYM    DATA     BYTE      SPCTL
      000000B0H.7 SFRSYM    DATA     BIT       CCP2
      000000D8H.7 SFRSYM    DATA     BIT       CF
      000000F9H   SFRSYM    DATA     BYTE      CH
      000000A2H   SFRSYM    DATA     BYTE      P_SW1
      000000BAH   SFRSYM    DATA     BYTE      P_SW2
      000000A8H.5 SFRSYM    DATA     BIT       EADC
      000000E5H   SFRSYM    DATA     BYTE      DPH1
      000000A8H   SFRSYM    DATA     BYTE      IE
      000000E9H   SFRSYM    DATA     BYTE      CL
      000000C5H   SFRSYM    DATA     BYTE      IAP_CMD
      000000FAH   SFRSYM    DATA     BYTE      CCAP0H
      000000FBH   SFRSYM    DATA     BYTE      CCAP1H
      000000E4H   SFRSYM    DATA     BYTE      DPL1
      000000FCH   SFRSYM    DATA     BYTE      CCAP2H
      000000BDH   SFRSYM    DATA     BYTE      ADC_RES
      000000B6H   SFRSYM    DATA     BYTE      IP2H
      000000EEH   SFRSYM    DATA     BYTE      IP3H
      000000EAH   SFRSYM    DATA     BYTE      CCAP0L
      000000D8H.6 SFRSYM    DATA     BIT       CR
      000000AEH   SFRSYM    DATA     BYTE      TA
      000000B0H.7 SFRSYM    DATA     BIT       RD
      000000EBH   SFRSYM    DATA     BYTE      CCAP1L
      000000DAH   SFRSYM    DATA     BYTE      CCAPM0
      000000ECH   SFRSYM    DATA     BYTE      CCAP2L
      000000DBH   SFRSYM    DATA     BYTE      CCAPM1
      000000A8H.4 SFRSYM    DATA     BIT       ES
      000000DCH   SFRSYM    DATA     BYTE      CCAPM2
      000000B8H.5 SFRSYM    DATA     BIT       PADC
      000000B8H   SFRSYM    DATA     BYTE      IP
      000000DEH   SFRSYM    DATA     BYTE      ADCCFG
      00000098H.0 SFRSYM    DATA     BIT       RI
      000000B0H.2 SFRSYM    DATA     BIT       INT0
      000000D0H.7 SFRSYM    DATA     BIT       CY
      00000098H.1 SFRSYM    DATA     BIT       TI
      000000B0H.3 SFRSYM    DATA     BIT       INT1
      000000B0H.6 SFRSYM    DATA     BIT       INT2
      000000B0H.7 SFRSYM    DATA     BIT       INT3
      000000B0H.0 SFRSYM    DATA     BIT       INT4
LX51 LINKER/LOCATER V4.66.93.0                                                        06/09/2021  13:46:55  PAGE 31


      000000C3H   SFRSYM    DATA     BYTE      IAP_ADDRH
      00000090H.0 SFRSYM    DATA     BIT       RXD2
      00000090H.1 SFRSYM    DATA     BIT       TXD2
      000000B8H.4 SFRSYM    DATA     BIT       PS
      00000081H   SFRSYM    DATA     BYTE      SP
      000000D9H   SFRSYM    DATA     BYTE      CMOD
      000000D8H   SFRSYM    DATA     BYTE      CCON
      000000C4H   SFRSYM    DATA     BYTE      IAP_ADDRL
      000000D0H.2 SFRSYM    DATA     BIT       OV
      000000B8H.7 SFRSYM    DATA     BIT       PPCA
      0000009EH   SFRSYM    DATA     BYTE      LIRTRIM
      000000E6H   SFRSYM    DATA     BYTE      CMPCR1
      000000B0H.6 SFRSYM    DATA     BIT       WR
      000000E7H   SFRSYM    DATA     BYTE      CMPCR2
      000000A8H.6 SFRSYM    DATA     BIT       ELVD
      00000080H.0 SFRSYM    DATA     BIT       P00
      00000090H.0 SFRSYM    DATA     BIT       P10
      00000080H.1 SFRSYM    DATA     BIT       P01
      000000BCH   SFRSYM    DATA     BYTE      ADC_CONTR
      00000099H   SFRSYM    DATA     BYTE      SBUF
      00000087H   SFRSYM    DATA     BYTE      PCON
      000000A0H.0 SFRSYM    DATA     BIT       P20
      00000090H.1 SFRSYM    DATA     BIT       P11
      00000080H.2 SFRSYM    DATA     BIT       P02
      000000B0H.0 SFRSYM    DATA     BIT       P30
      000000A0H.1 SFRSYM    DATA     BIT       P21
      00000090H.2 SFRSYM    DATA     BIT       P12
      00000080H.3 SFRSYM    DATA     BIT       P03
      000000F5H   SFRSYM    DATA     BYTE      IAP_TPS
      000000C0H.0 SFRSYM    DATA     BIT       P40
      000000B0H.1 SFRSYM    DATA     BIT       P31
      000000A0H.2 SFRSYM    DATA     BIT       P22
      00000090H.3 SFRSYM    DATA     BIT       P13
      00000080H.4 SFRSYM    DATA     BIT       P04
      00000098H   SFRSYM    DATA     BYTE      SCON
      000000C8H.0 SFRSYM    DATA     BIT       P50
      000000C0H.1 SFRSYM    DATA     BIT       P41
      000000B0H.2 SFRSYM    DATA     BIT       P32
      000000A0H.3 SFRSYM    DATA     BIT       P23
      00000090H.4 SFRSYM    DATA     BIT       P14
      00000080H.5 SFRSYM    DATA     BIT       P05
      00000089H   SFRSYM    DATA     BYTE      TMOD
      00000088H   SFRSYM    DATA     BYTE      TCON
      000000E8H.0 SFRSYM    DATA     BIT       P60
      000000C8H.1 SFRSYM    DATA     BIT       P51
      000000C0H.2 SFRSYM    DATA     BIT       P42
      000000B0H.3 SFRSYM    DATA     BIT       P33
      000000A0H.4 SFRSYM    DATA     BIT       P24
      00000090H.5 SFRSYM    DATA     BIT       P15
      00000080H.6 SFRSYM    DATA     BIT       P06
      000000F8H.0 SFRSYM    DATA     BIT       P70
      000000E8H.1 SFRSYM    DATA     BIT       P61
      000000C8H.2 SFRSYM    DATA     BIT       P52
      000000C0H.3 SFRSYM    DATA     BIT       P43
      000000B0H.4 SFRSYM    DATA     BIT       P34
      000000A0H.5 SFRSYM    DATA     BIT       P25
      00000090H.6 SFRSYM    DATA     BIT       P16
      00000080H.7 SFRSYM    DATA     BIT       P07
      000000B8H.6 SFRSYM    DATA     BIT       PLVD
      000000F8H.1 SFRSYM    DATA     BIT       P71
      000000E8H.2 SFRSYM    DATA     BIT       P62
      000000C8H.3 SFRSYM    DATA     BIT       P53
      000000C0H.4 SFRSYM    DATA     BIT       P44
      000000B0H.5 SFRSYM    DATA     BIT       P35
      000000A0H.6 SFRSYM    DATA     BIT       P26
LX51 LINKER/LOCATER V4.66.93.0                                                        06/09/2021  13:46:55  PAGE 32


      00000090H.7 SFRSYM    DATA     BIT       P17
      000000F8H.2 SFRSYM    DATA     BIT       P72
      000000E8H.3 SFRSYM    DATA     BIT       P63
      000000C8H.4 SFRSYM    DATA     BIT       P54
      000000C0H.5 SFRSYM    DATA     BIT       P45
      000000B0H.6 SFRSYM    DATA     BIT       P36
      000000A0H.7 SFRSYM    DATA     BIT       P27
      000000F8H.3 SFRSYM    DATA     BIT       P73
      000000E8H.4 SFRSYM    DATA     BIT       P64
      000000C8H.5 SFRSYM    DATA     BIT       P55
      000000C0H.6 SFRSYM    DATA     BIT       P46
      000000B0H.7 SFRSYM    DATA     BIT       P37
      000000F8H.4 SFRSYM    DATA     BIT       P74
      000000E8H.5 SFRSYM    DATA     BIT       P65
      000000C8H.6 SFRSYM    DATA     BIT       P56
      000000C0H.7 SFRSYM    DATA     BIT       P47
      000000F8H.5 SFRSYM    DATA     BIT       P75
      000000E8H.6 SFRSYM    DATA     BIT       P66
      000000C8H.7 SFRSYM    DATA     BIT       P57
      000000F8H.6 SFRSYM    DATA     BIT       P76
      000000E8H.7 SFRSYM    DATA     BIT       P67
      000000F8H.7 SFRSYM    DATA     BIT       P77
      00000088H.1 SFRSYM    DATA     BIT       IE0
      000000A1H   SFRSYM    DATA     BYTE      BUS_SPEED
      00000088H.3 SFRSYM    DATA     BIT       IE1
      000000AFH   SFRSYM    DATA     BYTE      IE2
      000000F0H   SFRSYM    DATA     BYTE      B
      0000008EH   SFRSYM    DATA     BYTE      AUXR
      000000C7H   SFRSYM    DATA     BYTE      IAP_CONTR
      000000F6H   SFRSYM    DATA     BYTE      PWMCFG
      000000E0H   SFRSYM    DATA     BYTE      ACC
      000000A8H.1 SFRSYM    DATA     BIT       ET0
      000000A8H.3 SFRSYM    DATA     BIT       ET1
      00000088H.5 SFRSYM    DATA     BIT       TF0
      00000088H.7 SFRSYM    DATA     BIT       TF1
      000000FFH   SFRSYM    DATA     BYTE      RSTCFG
      000000B5H   SFRSYM    DATA     BYTE      IP2
      00000098H.2 SFRSYM    DATA     BIT       RB8
      000000DFH   SFRSYM    DATA     BYTE      IP3
      0000008CH   SFRSYM    DATA     BYTE      TH0
      000000A8H.0 SFRSYM    DATA     BIT       EX0
      00000088H.0 SFRSYM    DATA     BIT       IT0
      0000008DH   SFRSYM    DATA     BYTE      TH1
      000000A8H.2 SFRSYM    DATA     BIT       EX1
      00000098H.3 SFRSYM    DATA     BIT       TB8
      00000088H.2 SFRSYM    DATA     BIT       IT1
      000000D6H   SFRSYM    DATA     BYTE      TH2
      000000D6H   SFRSYM    DATA     BYTE      T2H
      000000D0H.0 SFRSYM    DATA     BIT       P
      000000D4H   SFRSYM    DATA     BYTE      TH3
      000000D4H   SFRSYM    DATA     BYTE      T3H
      00000098H.7 SFRSYM    DATA     BIT       SM0
      000000D2H   SFRSYM    DATA     BYTE      TH4
      000000D2H   SFRSYM    DATA     BYTE      T4H
      0000008AH   SFRSYM    DATA     BYTE      TL0
      00000098H.6 SFRSYM    DATA     BIT       SM1
      0000008BH   SFRSYM    DATA     BYTE      TL1
      00000098H.5 SFRSYM    DATA     BIT       SM2
      000000D7H   SFRSYM    DATA     BYTE      TL2
      000000D7H   SFRSYM    DATA     BYTE      T2L
      000000D5H   SFRSYM    DATA     BYTE      TL3
      000000D5H   SFRSYM    DATA     BYTE      T3L
      000000D3H   SFRSYM    DATA     BYTE      TL4
      000000D3H   SFRSYM    DATA     BYTE      T4L
      000000B8H.1 SFRSYM    DATA     BIT       PT0
LX51 LINKER/LOCATER V4.66.93.0                                                        06/09/2021  13:46:55  PAGE 33


      000000D0H.3 SFRSYM    DATA     BIT       RS0
      000000B8H.3 SFRSYM    DATA     BIT       PT1
      00000088H.4 SFRSYM    DATA     BIT       TR0
      000000D0H.4 SFRSYM    DATA     BIT       RS1
      000000C2H   SFRSYM    DATA     BYTE      IAP_DATA
      00000088H.6 SFRSYM    DATA     BIT       TR1
      000000C1H   SFRSYM    DATA     BYTE      WDT_CONTR
      000000B8H.0 SFRSYM    DATA     BIT       PX0
      000000B8H.2 SFRSYM    DATA     BIT       PX1
      0000009FH   SFRSYM    DATA     BYTE      IRTRIM
      000000F2H   SFRSYM    DATA     BYTE      PCA_PWM0
      000000F3H   SFRSYM    DATA     BYTE      PCA_PWM1
      000000F4H   SFRSYM    DATA     BYTE      PCA_PWM2
      00000083H   SFRSYM    DATA     BYTE      DPH
      000000D1H   SFRSYM    DATA     BYTE      T4T3M
      000000BEH   SFRSYM    DATA     BYTE      ADC_RESL
      00000082H   SFRSYM    DATA     BYTE      DPL
      000000CDH   SFRSYM    DATA     BYTE      SPSTAT
      000000B7H   SFRSYM    DATA     BYTE      IPH
      000000F1H   SFRSYM    DATA     BYTE      PWMSET
      0000009BH   SFRSYM    DATA     BYTE      S2BUF
      000000ADH   SFRSYM    DATA     BYTE      S3BUF
      00000098H.4 SFRSYM    DATA     BIT       REN
      00000085H   SFRSYM    DATA     BYTE      S4BUF
      0000009AH   SFRSYM    DATA     BYTE      S2CON
      000000E3H   SFRSYM    DATA     BYTE      DPS
      000000ACH   SFRSYM    DATA     BYTE      S3CON
      00000084H   SFRSYM    DATA     BYTE      S4CON
      000000EFH   SFRSYM    DATA     BYTE      AUXINTIF
      000000B9H   SFRSYM    DATA     BYTE      SADEN
      000000B0H.0 SFRSYM    DATA     BIT       RXD
      000000A9H   SFRSYM    DATA     BYTE      SADDR
      000000B0H.1 SFRSYM    DATA     BIT       TXD
      000000F0H.0 SFRSYM    DATA     BIT       B0
      000000F0H.1 SFRSYM    DATA     BIT       B1
      000000C6H   SFRSYM    DATA     BYTE      IAP_TRIG
      000000A2H   SFRSYM    DATA     BYTE      AUXR1
      000000F0H.2 SFRSYM    DATA     BIT       B2
      000000F0H.3 SFRSYM    DATA     BIT       B3
      000000F0H.4 SFRSYM    DATA     BIT       B4
      000000D0H.5 SFRSYM    DATA     BIT       F0
      0000009DH   SFRSYM    DATA     BYTE      IRCBAND
      000000F0H.5 SFRSYM    DATA     BIT       B5
      000000D0H.1 SFRSYM    DATA     BIT       F1
      0000008FH   SFRSYM    DATA     BYTE      INT_CLKO
      000000F0H.6 SFRSYM    DATA     BIT       B6
      000000E0H.0 SFRSYM    DATA     BIT       ACC0
      000000F0H.7 SFRSYM    DATA     BIT       B7
      000000E0H.1 SFRSYM    DATA     BIT       ACC1
      000000E0H.2 SFRSYM    DATA     BIT       ACC2
      000000E0H.3 SFRSYM    DATA     BIT       ACC3
      000000D0H   SFRSYM    DATA     BYTE      PSW
      000000E0H.4 SFRSYM    DATA     BIT       ACC4
      000000E0H.5 SFRSYM    DATA     BIT       ACC5
      000000D8H.0 SFRSYM    DATA     BIT       CCF0
      000000E0H.6 SFRSYM    DATA     BIT       ACC6
      000000D8H.1 SFRSYM    DATA     BIT       CCF1
      000000CFH   SFRSYM    DATA     BYTE      SPDAT
      00000094H   SFRSYM    DATA     BYTE      P0M0
      00000007H   SYMBOL    DATA     BYTE      State
      00000005H   SYMBOL    DATA     BYTE      Priority
      00000007H   SYMBOL    DATA     BYTE      State
      00000005H   SYMBOL    DATA     BYTE      Priority
      00000007H   SYMBOL    DATA     BYTE      State
      00000005H   SYMBOL    DATA     BYTE      Priority
LX51 LINKER/LOCATER V4.66.93.0                                                        06/09/2021  13:46:55  PAGE 34


      00000007H   SYMBOL    DATA     BYTE      State
      00000005H   SYMBOL    DATA     BYTE      Priority
      00000007H   SYMBOL    DATA     BYTE      State
      00000005H   SYMBOL    DATA     BYTE      Priority

      01000A80H   BLOCK     CODE     ---       LVL=0
      00000007H   SYMBOL    DATA     BYTE      State
      00000005H   SYMBOL    DATA     BYTE      Priority
      01000A80H   LINE      CODE     ---       #98
      01000A80H   LINE      CODE     ---       #99
      01000A80H   LINE      CODE     ---       #100
      01000A94H   LINE      CODE     ---       #101
      01000ACAH   LINE      CODE     ---       #102
      01000ACCH   LINE      CODE     ---       #103
      ---         BLOCKEND  ---      ---       LVL=0

      01000ACDH   BLOCK     CODE     ---       LVL=0
      00000007H   SYMBOL    DATA     BYTE      State
      00000005H   SYMBOL    DATA     BYTE      Priority
      01000ACDH   LINE      CODE     ---       #113
      01000ACDH   LINE      CODE     ---       #114
      01000ACDH   LINE      CODE     ---       #115
      01000AE1H   LINE      CODE     ---       #116
      01000B17H   LINE      CODE     ---       #117
      01000B19H   LINE      CODE     ---       #118
      ---         BLOCKEND  ---      ---       LVL=0

      01000C43H   BLOCK     CODE     ---       LVL=0
      00000007H   SYMBOL    DATA     BYTE      State
      00000005H   SYMBOL    DATA     BYTE      Priority
      01000C43H   LINE      CODE     ---       #128
      01000C43H   LINE      CODE     ---       #129
      01000C43H   LINE      CODE     ---       #130
      01000C59H   LINE      CODE     ---       #131
      01000C5AH   LINE      CODE     ---       #132
      01000C5BH   LINE      CODE     ---       #133
      ---         BLOCKEND  ---      ---       LVL=0

      01000C29H   BLOCK     CODE     ---       LVL=0
      00000007H   SYMBOL    DATA     BYTE      State
      00000005H   SYMBOL    DATA     BYTE      Priority
      01000C29H   LINE      CODE     ---       #143
      01000C29H   LINE      CODE     ---       #144
      01000C29H   LINE      CODE     ---       #145
      01000C40H   LINE      CODE     ---       #146
      01000C41H   LINE      CODE     ---       #147
      01000C42H   LINE      CODE     ---       #148
      ---         BLOCKEND  ---      ---       LVL=0

      0100005EH   BLOCK     CODE     ---       LVL=0
      00000007H   SYMBOL    DATA     BYTE      State
      00000005H   SYMBOL    DATA     BYTE      Priority
      0100005EH   LINE      CODE     ---       #158
      0100005EH   LINE      CODE     ---       #159
      0100005EH   LINE      CODE     ---       #160
      01000076H   LINE      CODE     ---       #161
      01000077H   LINE      CODE     ---       #162
      01000078H   LINE      CODE     ---       #163
      ---         BLOCKEND  ---      ---       LVL=0
      00000007H   SYMBOL    DATA     BYTE      State
      00000005H   SYMBOL    DATA     BYTE      Priority
      00000007H   SYMBOL    DATA     BYTE      State
      00000005H   SYMBOL    DATA     BYTE      Priority
      00000007H   SYMBOL    DATA     BYTE      Mode
      00000005H   SYMBOL    DATA     BYTE      State
LX51 LINKER/LOCATER V4.66.93.0                                                        06/09/2021  13:46:55  PAGE 35


      00000003H   SYMBOL    DATA     BYTE      Priority

      01000B1AH   BLOCK     CODE     ---       LVL=0
      00000007H   SYMBOL    DATA     BYTE      State
      00000005H   SYMBOL    DATA     BYTE      Priority
      01000B1AH   LINE      CODE     ---       #234
      01000B1AH   LINE      CODE     ---       #235
      01000B1AH   LINE      CODE     ---       #236
      01000B2EH   LINE      CODE     ---       #237
      01000B64H   LINE      CODE     ---       #238
      01000B66H   LINE      CODE     ---       #239
      ---         BLOCKEND  ---      ---       LVL=0
      00000007H   SYMBOL    DATA     BYTE      State
      00000005H   SYMBOL    DATA     BYTE      Priority
      00000007H   SYMBOL    DATA     BYTE      State
      00000005H   SYMBOL    DATA     BYTE      Priority
      00000007H   SYMBOL    DATA     BYTE      State
      00000005H   SYMBOL    DATA     BYTE      Priority
      00000007H   SYMBOL    DATA     BYTE      State
      00000005H   SYMBOL    DATA     BYTE      Priority
      00000007H   SYMBOL    DATA     BYTE      Channel
      00000005H   SYMBOL    DATA     BYTE      State
      00000003H   SYMBOL    DATA     BYTE      Priority
      00000007H   SYMBOL    DATA     BYTE      State
      00000005H   SYMBOL    DATA     BYTE      Priority
      00000003H   SYMBOL    DATA     BYTE      Bus_Priority
      00000007H   SYMBOL    DATA     BYTE      State
      00000005H   SYMBOL    DATA     BYTE      Priority
      00000003H   SYMBOL    DATA     BYTE      Bus_Priority
      00000007H   SYMBOL    DATA     BYTE      State
      00000005H   SYMBOL    DATA     BYTE      Priority
      00000003H   SYMBOL    DATA     BYTE      Bus_Priority
      00000007H   SYMBOL    DATA     BYTE      State
      00000005H   SYMBOL    DATA     BYTE      Priority
      00000003H   SYMBOL    DATA     BYTE      Bus_Priority
      00000007H   SYMBOL    DATA     BYTE      State
      00000005H   SYMBOL    DATA     BYTE      Priority
      00000003H   SYMBOL    DATA     BYTE      Bus_Priority
      00000007H   SYMBOL    DATA     BYTE      State
      00000005H   SYMBOL    DATA     BYTE      Priority
      00000003H   SYMBOL    DATA     BYTE      Bus_Priority
      00000007H   SYMBOL    DATA     BYTE      State
      00000005H   SYMBOL    DATA     BYTE      Priority
      00000003H   SYMBOL    DATA     BYTE      Bus_Priority
      00000007H   SYMBOL    DATA     BYTE      State
      00000005H   SYMBOL    DATA     BYTE      Priority
      00000003H   SYMBOL    DATA     BYTE      Bus_Priority
      00000007H   SYMBOL    DATA     BYTE      State
      00000005H   SYMBOL    DATA     BYTE      Priority
      00000003H   SYMBOL    DATA     BYTE      Bus_Priority
      00000007H   SYMBOL    DATA     BYTE      State
      00000005H   SYMBOL    DATA     BYTE      Priority
      00000003H   SYMBOL    DATA     BYTE      Bus_Priority
      00000007H   SYMBOL    DATA     BYTE      State
      00000005H   SYMBOL    DATA     BYTE      Priority
      00000003H   SYMBOL    DATA     BYTE      Bus_Priority
      00000007H   SYMBOL    DATA     BYTE      State
      00000005H   SYMBOL    DATA     BYTE      Priority
      00000003H   SYMBOL    DATA     BYTE      Bus_Priority
      00000007H   SYMBOL    DATA     BYTE      State
      00000005H   SYMBOL    DATA     BYTE      Priority

      ---         MODULE    ---      ---       STC8A_UART
      02000080H   PUBLIC    XDATA    ---       TX1_Buffer
      02000000H   PUBLIC    XDATA    ---       RX1_Buffer
LX51 LINKER/LOCATER V4.66.93.0                                                        06/09/2021  13:46:55  PAGE 36


      00000022H   PUBLIC    DATA     ---       COM1
      0100004DH   PUBLIC    CODE     ---       _putchar
      01000C73H   PUBLIC    CODE     ---       _PrintString1
      01000016H   PUBLIC    CODE     ---       _TX1_write2buff
      0100083FH   PUBLIC    CODE     ---       _UART_Configuration
      000000E0H.7 SFRSYM    DATA     BIT       ACC7
      000000D8H.2 SFRSYM    DATA     BIT       CCF2
      00000093H   SFRSYM    DATA     BYTE      P0M1
      00000092H   SFRSYM    DATA     BYTE      P1M0
      000000D8H.3 SFRSYM    DATA     BIT       CCF3
      00000096H   SFRSYM    DATA     BYTE      P2M0
      00000091H   SFRSYM    DATA     BYTE      P1M1
      00000080H   SFRSYM    DATA     BYTE      P0
      000000B2H   SFRSYM    DATA     BYTE      P3M0
      00000095H   SFRSYM    DATA     BYTE      P2M1
      00000090H   SFRSYM    DATA     BYTE      P1
      000000B4H   SFRSYM    DATA     BYTE      P4M0
      000000B1H   SFRSYM    DATA     BYTE      P3M1
      000000A0H   SFRSYM    DATA     BYTE      P2
      000000CAH   SFRSYM    DATA     BYTE      P5M0
      000000B3H   SFRSYM    DATA     BYTE      P4M1
      000000B0H   SFRSYM    DATA     BYTE      P3
      000000ABH   SFRSYM    DATA     BYTE      WKTCH
      000000B0H.4 SFRSYM    DATA     BIT       T0
      000000D0H.6 SFRSYM    DATA     BIT       AC
      000000CCH   SFRSYM    DATA     BYTE      P6M0
      000000C9H   SFRSYM    DATA     BYTE      P5M1
      000000C0H   SFRSYM    DATA     BYTE      P4
      000000B0H.5 SFRSYM    DATA     BIT       CLKOUT0
      000000B0H.5 SFRSYM    DATA     BIT       T1
      000000E2H   SFRSYM    DATA     BYTE      P7M0
      000000CBH   SFRSYM    DATA     BYTE      P6M1
      000000C8H   SFRSYM    DATA     BYTE      P5
      000000A8H.7 SFRSYM    DATA     BIT       EA
      000000B0H.4 SFRSYM    DATA     BIT       CLKOUT1
      000000E8H   SFRSYM    DATA     BYTE      P6
      000000E1H   SFRSYM    DATA     BYTE      P7M1
      00000090H.1 SFRSYM    DATA     BIT       CCP0
      000000F8H   SFRSYM    DATA     BYTE      P7
      000000AAH   SFRSYM    DATA     BYTE      WKTCL
      00000090H.0 SFRSYM    DATA     BIT       CCP1
      000000CEH   SFRSYM    DATA     BYTE      SPCTL
      000000B0H.7 SFRSYM    DATA     BIT       CCP2
      000000D8H.7 SFRSYM    DATA     BIT       CF
      000000F9H   SFRSYM    DATA     BYTE      CH
      000000A2H   SFRSYM    DATA     BYTE      P_SW1
      000000BAH   SFRSYM    DATA     BYTE      P_SW2
      000000A8H.5 SFRSYM    DATA     BIT       EADC
      000000E5H   SFRSYM    DATA     BYTE      DPH1
      000000A8H   SFRSYM    DATA     BYTE      IE
      000000E9H   SFRSYM    DATA     BYTE      CL
      000000C5H   SFRSYM    DATA     BYTE      IAP_CMD
      000000FAH   SFRSYM    DATA     BYTE      CCAP0H
      000000FBH   SFRSYM    DATA     BYTE      CCAP1H
      000000E4H   SFRSYM    DATA     BYTE      DPL1
      000000FCH   SFRSYM    DATA     BYTE      CCAP2H
      000000BDH   SFRSYM    DATA     BYTE      ADC_RES
      000000B6H   SFRSYM    DATA     BYTE      IP2H
      000000EEH   SFRSYM    DATA     BYTE      IP3H
      000000EAH   SFRSYM    DATA     BYTE      CCAP0L
      000000D8H.6 SFRSYM    DATA     BIT       CR
      000000AEH   SFRSYM    DATA     BYTE      TA
      000000B0H.7 SFRSYM    DATA     BIT       RD
      000000EBH   SFRSYM    DATA     BYTE      CCAP1L
      000000DAH   SFRSYM    DATA     BYTE      CCAPM0
LX51 LINKER/LOCATER V4.66.93.0                                                        06/09/2021  13:46:55  PAGE 37


      000000ECH   SFRSYM    DATA     BYTE      CCAP2L
      000000DBH   SFRSYM    DATA     BYTE      CCAPM1
      000000A8H.4 SFRSYM    DATA     BIT       ES
      000000DCH   SFRSYM    DATA     BYTE      CCAPM2
      000000B8H.5 SFRSYM    DATA     BIT       PADC
      000000B8H   SFRSYM    DATA     BYTE      IP
      000000DEH   SFRSYM    DATA     BYTE      ADCCFG
      00000098H.0 SFRSYM    DATA     BIT       RI
      000000B0H.2 SFRSYM    DATA     BIT       INT0
      000000D0H.7 SFRSYM    DATA     BIT       CY
      00000098H.1 SFRSYM    DATA     BIT       TI
      000000B0H.3 SFRSYM    DATA     BIT       INT1
      000000B0H.6 SFRSYM    DATA     BIT       INT2
      000000B0H.7 SFRSYM    DATA     BIT       INT3
      000000B0H.0 SFRSYM    DATA     BIT       INT4
      000000C3H   SFRSYM    DATA     BYTE      IAP_ADDRH
      00000090H.0 SFRSYM    DATA     BIT       RXD2
      00000090H.1 SFRSYM    DATA     BIT       TXD2
      000000B8H.4 SFRSYM    DATA     BIT       PS
      00000081H   SFRSYM    DATA     BYTE      SP
      000000D9H   SFRSYM    DATA     BYTE      CMOD
      000000D8H   SFRSYM    DATA     BYTE      CCON
      000000C4H   SFRSYM    DATA     BYTE      IAP_ADDRL
      000000D0H.2 SFRSYM    DATA     BIT       OV
      000000B8H.7 SFRSYM    DATA     BIT       PPCA
      0000009EH   SFRSYM    DATA     BYTE      LIRTRIM
      000000E6H   SFRSYM    DATA     BYTE      CMPCR1
      000000B0H.6 SFRSYM    DATA     BIT       WR
      000000E7H   SFRSYM    DATA     BYTE      CMPCR2
      000000A8H.6 SFRSYM    DATA     BIT       ELVD
      00000080H.0 SFRSYM    DATA     BIT       P00
      00000090H.0 SFRSYM    DATA     BIT       P10
      00000080H.1 SFRSYM    DATA     BIT       P01
      000000BCH   SFRSYM    DATA     BYTE      ADC_CONTR
      00000099H   SFRSYM    DATA     BYTE      SBUF
      00000087H   SFRSYM    DATA     BYTE      PCON
      000000A0H.0 SFRSYM    DATA     BIT       P20
      00000090H.1 SFRSYM    DATA     BIT       P11
      00000080H.2 SFRSYM    DATA     BIT       P02
      000000B0H.0 SFRSYM    DATA     BIT       P30
      000000A0H.1 SFRSYM    DATA     BIT       P21
      00000090H.2 SFRSYM    DATA     BIT       P12
      00000080H.3 SFRSYM    DATA     BIT       P03
      000000F5H   SFRSYM    DATA     BYTE      IAP_TPS
      000000C0H.0 SFRSYM    DATA     BIT       P40
      000000B0H.1 SFRSYM    DATA     BIT       P31
      000000A0H.2 SFRSYM    DATA     BIT       P22
      00000090H.3 SFRSYM    DATA     BIT       P13
      00000080H.4 SFRSYM    DATA     BIT       P04
      00000098H   SFRSYM    DATA     BYTE      SCON
      000000C8H.0 SFRSYM    DATA     BIT       P50
      000000C0H.1 SFRSYM    DATA     BIT       P41
      000000B0H.2 SFRSYM    DATA     BIT       P32
      000000A0H.3 SFRSYM    DATA     BIT       P23
      00000090H.4 SFRSYM    DATA     BIT       P14
      00000080H.5 SFRSYM    DATA     BIT       P05
      00000089H   SFRSYM    DATA     BYTE      TMOD
      00000088H   SFRSYM    DATA     BYTE      TCON
      000000E8H.0 SFRSYM    DATA     BIT       P60
      000000C8H.1 SFRSYM    DATA     BIT       P51
      000000C0H.2 SFRSYM    DATA     BIT       P42
      000000B0H.3 SFRSYM    DATA     BIT       P33
      000000A0H.4 SFRSYM    DATA     BIT       P24
      00000090H.5 SFRSYM    DATA     BIT       P15
      00000080H.6 SFRSYM    DATA     BIT       P06
LX51 LINKER/LOCATER V4.66.93.0                                                        06/09/2021  13:46:55  PAGE 38


      000000F8H.0 SFRSYM    DATA     BIT       P70
      000000E8H.1 SFRSYM    DATA     BIT       P61
      000000C8H.2 SFRSYM    DATA     BIT       P52
      000000C0H.3 SFRSYM    DATA     BIT       P43
      000000B0H.4 SFRSYM    DATA     BIT       P34
      000000A0H.5 SFRSYM    DATA     BIT       P25
      00000090H.6 SFRSYM    DATA     BIT       P16
      00000080H.7 SFRSYM    DATA     BIT       P07
      000000B8H.6 SFRSYM    DATA     BIT       PLVD
      000000F8H.1 SFRSYM    DATA     BIT       P71
      000000E8H.2 SFRSYM    DATA     BIT       P62
      000000C8H.3 SFRSYM    DATA     BIT       P53
      000000C0H.4 SFRSYM    DATA     BIT       P44
      000000B0H.5 SFRSYM    DATA     BIT       P35
      000000A0H.6 SFRSYM    DATA     BIT       P26
      00000090H.7 SFRSYM    DATA     BIT       P17
      000000F8H.2 SFRSYM    DATA     BIT       P72
      000000E8H.3 SFRSYM    DATA     BIT       P63
      000000C8H.4 SFRSYM    DATA     BIT       P54
      000000C0H.5 SFRSYM    DATA     BIT       P45
      000000B0H.6 SFRSYM    DATA     BIT       P36
      000000A0H.7 SFRSYM    DATA     BIT       P27
      000000F8H.3 SFRSYM    DATA     BIT       P73
      000000E8H.4 SFRSYM    DATA     BIT       P64
      000000C8H.5 SFRSYM    DATA     BIT       P55
      000000C0H.6 SFRSYM    DATA     BIT       P46
      000000B0H.7 SFRSYM    DATA     BIT       P37
      000000F8H.4 SFRSYM    DATA     BIT       P74
      000000E8H.5 SFRSYM    DATA     BIT       P65
      000000C8H.6 SFRSYM    DATA     BIT       P56
      000000C0H.7 SFRSYM    DATA     BIT       P47
      000000F8H.5 SFRSYM    DATA     BIT       P75
      000000E8H.6 SFRSYM    DATA     BIT       P66
      000000C8H.7 SFRSYM    DATA     BIT       P57
      000000F8H.6 SFRSYM    DATA     BIT       P76
      000000E8H.7 SFRSYM    DATA     BIT       P67
      000000F8H.7 SFRSYM    DATA     BIT       P77
      00000088H.1 SFRSYM    DATA     BIT       IE0
      000000A1H   SFRSYM    DATA     BYTE      BUS_SPEED
      00000088H.3 SFRSYM    DATA     BIT       IE1
      000000AFH   SFRSYM    DATA     BYTE      IE2
      000000F0H   SFRSYM    DATA     BYTE      B
      0000008EH   SFRSYM    DATA     BYTE      AUXR
      000000C7H   SFRSYM    DATA     BYTE      IAP_CONTR
      000000F6H   SFRSYM    DATA     BYTE      PWMCFG
      000000E0H   SFRSYM    DATA     BYTE      ACC
      000000A8H.1 SFRSYM    DATA     BIT       ET0
      000000A8H.3 SFRSYM    DATA     BIT       ET1
      00000088H.5 SFRSYM    DATA     BIT       TF0
      00000088H.7 SFRSYM    DATA     BIT       TF1
      000000FFH   SFRSYM    DATA     BYTE      RSTCFG
      000000B5H   SFRSYM    DATA     BYTE      IP2
      00000098H.2 SFRSYM    DATA     BIT       RB8
      000000DFH   SFRSYM    DATA     BYTE      IP3
      0000008CH   SFRSYM    DATA     BYTE      TH0
      000000A8H.0 SFRSYM    DATA     BIT       EX0
      00000088H.0 SFRSYM    DATA     BIT       IT0
      0000008DH   SFRSYM    DATA     BYTE      TH1
      000000A8H.2 SFRSYM    DATA     BIT       EX1
      00000098H.3 SFRSYM    DATA     BIT       TB8
      00000088H.2 SFRSYM    DATA     BIT       IT1
      000000D6H   SFRSYM    DATA     BYTE      TH2
      000000D6H   SFRSYM    DATA     BYTE      T2H
      000000D0H.0 SFRSYM    DATA     BIT       P
      000000D4H   SFRSYM    DATA     BYTE      TH3
LX51 LINKER/LOCATER V4.66.93.0                                                        06/09/2021  13:46:55  PAGE 39


      000000D4H   SFRSYM    DATA     BYTE      T3H
      00000098H.7 SFRSYM    DATA     BIT       SM0
      000000D2H   SFRSYM    DATA     BYTE      TH4
      000000D2H   SFRSYM    DATA     BYTE      T4H
      0000008AH   SFRSYM    DATA     BYTE      TL0
      00000098H.6 SFRSYM    DATA     BIT       SM1
      0000008BH   SFRSYM    DATA     BYTE      TL1
      00000098H.5 SFRSYM    DATA     BIT       SM2
      000000D7H   SFRSYM    DATA     BYTE      TL2
      000000D7H   SFRSYM    DATA     BYTE      T2L
      000000D5H   SFRSYM    DATA     BYTE      TL3
      000000D5H   SFRSYM    DATA     BYTE      T3L
      000000D3H   SFRSYM    DATA     BYTE      TL4
      000000D3H   SFRSYM    DATA     BYTE      T4L
      000000B8H.1 SFRSYM    DATA     BIT       PT0
      000000D0H.3 SFRSYM    DATA     BIT       RS0
      000000B8H.3 SFRSYM    DATA     BIT       PT1
      00000088H.4 SFRSYM    DATA     BIT       TR0
      000000D0H.4 SFRSYM    DATA     BIT       RS1
      000000C2H   SFRSYM    DATA     BYTE      IAP_DATA
      00000088H.6 SFRSYM    DATA     BIT       TR1
      000000C1H   SFRSYM    DATA     BYTE      WDT_CONTR
      000000B8H.0 SFRSYM    DATA     BIT       PX0
      000000B8H.2 SFRSYM    DATA     BIT       PX1
      0000009FH   SFRSYM    DATA     BYTE      IRTRIM
      000000F2H   SFRSYM    DATA     BYTE      PCA_PWM0
      000000F3H   SFRSYM    DATA     BYTE      PCA_PWM1
      000000F4H   SFRSYM    DATA     BYTE      PCA_PWM2
      00000083H   SFRSYM    DATA     BYTE      DPH
      000000D1H   SFRSYM    DATA     BYTE      T4T3M
      000000BEH   SFRSYM    DATA     BYTE      ADC_RESL
      00000082H   SFRSYM    DATA     BYTE      DPL
      000000CDH   SFRSYM    DATA     BYTE      SPSTAT
      000000B7H   SFRSYM    DATA     BYTE      IPH
      000000F1H   SFRSYM    DATA     BYTE      PWMSET
      0000009BH   SFRSYM    DATA     BYTE      S2BUF
      000000ADH   SFRSYM    DATA     BYTE      S3BUF
      00000098H.4 SFRSYM    DATA     BIT       REN
      00000085H   SFRSYM    DATA     BYTE      S4BUF
      0000009AH   SFRSYM    DATA     BYTE      S2CON
      000000E3H   SFRSYM    DATA     BYTE      DPS
      000000ACH   SFRSYM    DATA     BYTE      S3CON
      00000084H   SFRSYM    DATA     BYTE      S4CON
      000000EFH   SFRSYM    DATA     BYTE      AUXINTIF
      000000B9H   SFRSYM    DATA     BYTE      SADEN
      000000B0H.0 SFRSYM    DATA     BIT       RXD
      000000A9H   SFRSYM    DATA     BYTE      SADDR
      000000B0H.1 SFRSYM    DATA     BIT       TXD
      000000F0H.0 SFRSYM    DATA     BIT       B0
      000000F0H.1 SFRSYM    DATA     BIT       B1
      000000C6H   SFRSYM    DATA     BYTE      IAP_TRIG
      000000A2H   SFRSYM    DATA     BYTE      AUXR1
      000000F0H.2 SFRSYM    DATA     BIT       B2
      000000F0H.3 SFRSYM    DATA     BIT       B3
      000000F0H.4 SFRSYM    DATA     BIT       B4
      000000D0H.5 SFRSYM    DATA     BIT       F0
      0000009DH   SFRSYM    DATA     BYTE      IRCBAND
      000000F0H.5 SFRSYM    DATA     BIT       B5
      000000D0H.1 SFRSYM    DATA     BIT       F1
      0000008FH   SFRSYM    DATA     BYTE      INT_CLKO
      000000F0H.6 SFRSYM    DATA     BIT       B6
      000000E0H.0 SFRSYM    DATA     BIT       ACC0
      000000F0H.7 SFRSYM    DATA     BIT       B7
      000000E0H.1 SFRSYM    DATA     BIT       ACC1
      000000E0H.2 SFRSYM    DATA     BIT       ACC2
LX51 LINKER/LOCATER V4.66.93.0                                                        06/09/2021  13:46:55  PAGE 40


      000000E0H.3 SFRSYM    DATA     BIT       ACC3
      000000D0H   SFRSYM    DATA     BYTE      PSW
      000000E0H.4 SFRSYM    DATA     BIT       ACC4
      000000E0H.5 SFRSYM    DATA     BIT       ACC5
      000000D8H.0 SFRSYM    DATA     BIT       CCF0
      000000E0H.6 SFRSYM    DATA     BIT       ACC6
      000000D8H.1 SFRSYM    DATA     BIT       CCF1
      000000CFH   SFRSYM    DATA     BYTE      SPDAT
      00000094H   SFRSYM    DATA     BYTE      P0M0

      0100083FH   BLOCK     CODE     ---       LVL=0
      00000007H   SYMBOL    DATA     BYTE      UARTx
      00000011H   SYMBOL    DATA     ---       COMx
      01000845H   BLOCK     CODE     NEAR LAB  LVL=1
      00000007H   SYMBOL    DATA     BYTE      i
      00000014H   SYMBOL    DATA     DWORD     j
      ---         BLOCKEND  ---      ---       LVL=1
      0100083FH   LINE      CODE     ---       #47
      01000845H   LINE      CODE     ---       #48
      01000845H   LINE      CODE     ---       #58
      0100084DH   LINE      CODE     ---       #59
      0100084DH   LINE      CODE     ---       #60
      01000850H   LINE      CODE     ---       #61
      01000852H   LINE      CODE     ---       #62
      01000854H   LINE      CODE     ---       #63
      01000856H   LINE      CODE     ---       #64
      01000858H   LINE      CODE     ---       #65
      0100085AH   LINE      CODE     ---       #66
      0100085CH   LINE      CODE     ---       #68
      01000876H   LINE      CODE     ---       #69
      01000891H   LINE      CODE     ---       #71
      010008A2H   LINE      CODE     ---       #72
      010008AFH   LINE      CODE     ---       #73
      010008AFH   LINE      CODE     ---       #74
      010008C8H   LINE      CODE     ---       #75
      010008DFH   LINE      CODE     ---       #76
      010008F5H   LINE      CODE     ---       #77
      01000905H   LINE      CODE     ---       #78
      01000905H   LINE      CODE     ---       #79
      01000908H   LINE      CODE     ---       #80
      0100090BH   LINE      CODE     ---       #81
      0100090EH   LINE      CODE     ---       #82
      01000911H   LINE      CODE     ---       #83
      01000920H   LINE      CODE     ---       #84
      01000923H   LINE      CODE     ---       #85
      01000926H   LINE      CODE     ---       #86
      01000929H   LINE      CODE     ---       #87
      0100092BH   LINE      CODE     ---       #89
      0100092BH   LINE      CODE     ---       #90
      0100092DH   LINE      CODE     ---       #91
      01000930H   LINE      CODE     ---       #92
      01000933H   LINE      CODE     ---       #93
      01000936H   LINE      CODE     ---       #94
      01000939H   LINE      CODE     ---       #95
      01000948H   LINE      CODE     ---       #96
      0100094BH   LINE      CODE     ---       #97
      0100094DH   LINE      CODE     ---       #98
      01000950H   LINE      CODE     ---       #99
      01000953H   LINE      CODE     ---       #100
      01000955H   LINE      CODE     ---       #101
      01000955H   LINE      CODE     ---       #102
      01000957H   LINE      CODE     ---       #103
      01000965H   LINE      CODE     ---       #104
      01000965H   LINE      CODE     ---       #105
      01000974H   LINE      CODE     ---       #106
LX51 LINKER/LOCATER V4.66.93.0                                                        06/09/2021  13:46:55  PAGE 41


      01000977H   LINE      CODE     ---       #107
      01000979H   LINE      CODE     ---       #108
      0100097FH   LINE      CODE     ---       #109
      0100097FH   LINE      CODE     ---       #110
      0100098EH   LINE      CODE     ---       #111
      01000991H   LINE      CODE     ---       #112
      01000991H   LINE      CODE     ---       #113
      010009A5H   LINE      CODE     ---       #115
      010009A8H   LINE      CODE     ---       #116
      010009A8H   LINE      CODE     ---       #245
      010009AAH   LINE      CODE     ---       #246
      ---         BLOCKEND  ---      ---       LVL=0

      01000016H   BLOCK     CODE     ---       LVL=0
      00000007H   SYMBOL    DATA     BYTE      dat
      01000016H   LINE      CODE     ---       #252
      01000016H   LINE      CODE     ---       #253
      01000016H   LINE      CODE     ---       #254
      01000018H   LINE      CODE     ---       #255
      0100001BH   LINE      CODE     ---       #256
      0100001FH   LINE      CODE     ---       #257
      ---         BLOCKEND  ---      ---       LVL=0

      01000C73H   BLOCK     CODE     ---       LVL=0
      00000001H   SYMBOL    DATA     ---       puts
      01000C73H   LINE      CODE     ---       #259
      01000C73H   LINE      CODE     ---       #260
      01000C73H   LINE      CODE     ---       #261
      01000C85H   LINE      CODE     ---       #262
      ---         BLOCKEND  ---      ---       LVL=0

      0100004DH   BLOCK     CODE     ---       LVL=0
      00000006H   SYMBOL    DATA     CHAR      c
      0100004DH   LINE      CODE     ---       #333
      0100004FH   LINE      CODE     ---       #334
      0100004FH   LINE      CODE     ---       #335
      ---         BLOCKEND  ---      ---       LVL=0

      ---         MODULE    ---      ---       STC8A_UART_ISR
      01000B67H   PUBLIC    CODE     ---       UART1_ISR_Handler
      000000E0H.7 SFRSYM    DATA     BIT       ACC7
      000000D8H.2 SFRSYM    DATA     BIT       CCF2
      00000093H   SFRSYM    DATA     BYTE      P0M1
      00000092H   SFRSYM    DATA     BYTE      P1M0
      000000D8H.3 SFRSYM    DATA     BIT       CCF3
      00000096H   SFRSYM    DATA     BYTE      P2M0
      00000091H   SFRSYM    DATA     BYTE      P1M1
      00000080H   SFRSYM    DATA     BYTE      P0
      000000B2H   SFRSYM    DATA     BYTE      P3M0
      00000095H   SFRSYM    DATA     BYTE      P2M1
      00000090H   SFRSYM    DATA     BYTE      P1
      000000B4H   SFRSYM    DATA     BYTE      P4M0
      000000B1H   SFRSYM    DATA     BYTE      P3M1
      000000A0H   SFRSYM    DATA     BYTE      P2
      000000CAH   SFRSYM    DATA     BYTE      P5M0
      000000B3H   SFRSYM    DATA     BYTE      P4M1
      000000B0H   SFRSYM    DATA     BYTE      P3
      000000ABH   SFRSYM    DATA     BYTE      WKTCH
      000000B0H.4 SFRSYM    DATA     BIT       T0
      000000D0H.6 SFRSYM    DATA     BIT       AC
      000000CCH   SFRSYM    DATA     BYTE      P6M0
      000000C9H   SFRSYM    DATA     BYTE      P5M1
      000000C0H   SFRSYM    DATA     BYTE      P4
      000000B0H.5 SFRSYM    DATA     BIT       CLKOUT0
      000000B0H.5 SFRSYM    DATA     BIT       T1
LX51 LINKER/LOCATER V4.66.93.0                                                        06/09/2021  13:46:55  PAGE 42


      000000E2H   SFRSYM    DATA     BYTE      P7M0
      000000CBH   SFRSYM    DATA     BYTE      P6M1
      000000C8H   SFRSYM    DATA     BYTE      P5
      000000A8H.7 SFRSYM    DATA     BIT       EA
      000000B0H.4 SFRSYM    DATA     BIT       CLKOUT1
      000000E8H   SFRSYM    DATA     BYTE      P6
      000000E1H   SFRSYM    DATA     BYTE      P7M1
      00000090H.1 SFRSYM    DATA     BIT       CCP0
      000000F8H   SFRSYM    DATA     BYTE      P7
      000000AAH   SFRSYM    DATA     BYTE      WKTCL
      00000090H.0 SFRSYM    DATA     BIT       CCP1
      000000CEH   SFRSYM    DATA     BYTE      SPCTL
      000000B0H.7 SFRSYM    DATA     BIT       CCP2
      000000D8H.7 SFRSYM    DATA     BIT       CF
      000000F9H   SFRSYM    DATA     BYTE      CH
      000000A2H   SFRSYM    DATA     BYTE      P_SW1
      000000BAH   SFRSYM    DATA     BYTE      P_SW2
      000000A8H.5 SFRSYM    DATA     BIT       EADC
      000000E5H   SFRSYM    DATA     BYTE      DPH1
      000000A8H   SFRSYM    DATA     BYTE      IE
      000000E9H   SFRSYM    DATA     BYTE      CL
      000000C5H   SFRSYM    DATA     BYTE      IAP_CMD
      000000FAH   SFRSYM    DATA     BYTE      CCAP0H
      000000FBH   SFRSYM    DATA     BYTE      CCAP1H
      000000E4H   SFRSYM    DATA     BYTE      DPL1
      000000FCH   SFRSYM    DATA     BYTE      CCAP2H
      000000BDH   SFRSYM    DATA     BYTE      ADC_RES
      000000B6H   SFRSYM    DATA     BYTE      IP2H
      000000EEH   SFRSYM    DATA     BYTE      IP3H
      000000EAH   SFRSYM    DATA     BYTE      CCAP0L
      000000D8H.6 SFRSYM    DATA     BIT       CR
      000000AEH   SFRSYM    DATA     BYTE      TA
      000000B0H.7 SFRSYM    DATA     BIT       RD
      000000EBH   SFRSYM    DATA     BYTE      CCAP1L
      000000DAH   SFRSYM    DATA     BYTE      CCAPM0
      000000ECH   SFRSYM    DATA     BYTE      CCAP2L
      000000DBH   SFRSYM    DATA     BYTE      CCAPM1
      000000A8H.4 SFRSYM    DATA     BIT       ES
      000000DCH   SFRSYM    DATA     BYTE      CCAPM2
      000000B8H.5 SFRSYM    DATA     BIT       PADC
      000000B8H   SFRSYM    DATA     BYTE      IP
      000000DEH   SFRSYM    DATA     BYTE      ADCCFG
      00000098H.0 SFRSYM    DATA     BIT       RI
      000000B0H.2 SFRSYM    DATA     BIT       INT0
      000000D0H.7 SFRSYM    DATA     BIT       CY
      00000098H.1 SFRSYM    DATA     BIT       TI
      000000B0H.3 SFRSYM    DATA     BIT       INT1
      000000B0H.6 SFRSYM    DATA     BIT       INT2
      000000B0H.7 SFRSYM    DATA     BIT       INT3
      000000B0H.0 SFRSYM    DATA     BIT       INT4
      000000C3H   SFRSYM    DATA     BYTE      IAP_ADDRH
      00000090H.0 SFRSYM    DATA     BIT       RXD2
      00000090H.1 SFRSYM    DATA     BIT       TXD2
      000000B8H.4 SFRSYM    DATA     BIT       PS
      00000081H   SFRSYM    DATA     BYTE      SP
      000000D9H   SFRSYM    DATA     BYTE      CMOD
      000000D8H   SFRSYM    DATA     BYTE      CCON
      000000C4H   SFRSYM    DATA     BYTE      IAP_ADDRL
      000000D0H.2 SFRSYM    DATA     BIT       OV
      000000B8H.7 SFRSYM    DATA     BIT       PPCA
      0000009EH   SFRSYM    DATA     BYTE      LIRTRIM
      000000E6H   SFRSYM    DATA     BYTE      CMPCR1
      000000B0H.6 SFRSYM    DATA     BIT       WR
      000000E7H   SFRSYM    DATA     BYTE      CMPCR2
      000000A8H.6 SFRSYM    DATA     BIT       ELVD
LX51 LINKER/LOCATER V4.66.93.0                                                        06/09/2021  13:46:55  PAGE 43


      00000080H.0 SFRSYM    DATA     BIT       P00
      00000090H.0 SFRSYM    DATA     BIT       P10
      00000080H.1 SFRSYM    DATA     BIT       P01
      000000BCH   SFRSYM    DATA     BYTE      ADC_CONTR
      00000099H   SFRSYM    DATA     BYTE      SBUF
      00000087H   SFRSYM    DATA     BYTE      PCON
      000000A0H.0 SFRSYM    DATA     BIT       P20
      00000090H.1 SFRSYM    DATA     BIT       P11
      00000080H.2 SFRSYM    DATA     BIT       P02
      000000B0H.0 SFRSYM    DATA     BIT       P30
      000000A0H.1 SFRSYM    DATA     BIT       P21
      00000090H.2 SFRSYM    DATA     BIT       P12
      00000080H.3 SFRSYM    DATA     BIT       P03
      000000F5H   SFRSYM    DATA     BYTE      IAP_TPS
      000000C0H.0 SFRSYM    DATA     BIT       P40
      000000B0H.1 SFRSYM    DATA     BIT       P31
      000000A0H.2 SFRSYM    DATA     BIT       P22
      00000090H.3 SFRSYM    DATA     BIT       P13
      00000080H.4 SFRSYM    DATA     BIT       P04
      00000098H   SFRSYM    DATA     BYTE      SCON
      000000C8H.0 SFRSYM    DATA     BIT       P50
      000000C0H.1 SFRSYM    DATA     BIT       P41
      000000B0H.2 SFRSYM    DATA     BIT       P32
      000000A0H.3 SFRSYM    DATA     BIT       P23
      00000090H.4 SFRSYM    DATA     BIT       P14
      00000080H.5 SFRSYM    DATA     BIT       P05
      00000089H   SFRSYM    DATA     BYTE      TMOD
      00000088H   SFRSYM    DATA     BYTE      TCON
      000000E8H.0 SFRSYM    DATA     BIT       P60
      000000C8H.1 SFRSYM    DATA     BIT       P51
      000000C0H.2 SFRSYM    DATA     BIT       P42
      000000B0H.3 SFRSYM    DATA     BIT       P33
      000000A0H.4 SFRSYM    DATA     BIT       P24
      00000090H.5 SFRSYM    DATA     BIT       P15
      00000080H.6 SFRSYM    DATA     BIT       P06
      000000F8H.0 SFRSYM    DATA     BIT       P70
      000000E8H.1 SFRSYM    DATA     BIT       P61
      000000C8H.2 SFRSYM    DATA     BIT       P52
      000000C0H.3 SFRSYM    DATA     BIT       P43
      000000B0H.4 SFRSYM    DATA     BIT       P34
      000000A0H.5 SFRSYM    DATA     BIT       P25
      00000090H.6 SFRSYM    DATA     BIT       P16
      00000080H.7 SFRSYM    DATA     BIT       P07
      000000B8H.6 SFRSYM    DATA     BIT       PLVD
      000000F8H.1 SFRSYM    DATA     BIT       P71
      000000E8H.2 SFRSYM    DATA     BIT       P62
      000000C8H.3 SFRSYM    DATA     BIT       P53
      000000C0H.4 SFRSYM    DATA     BIT       P44
      000000B0H.5 SFRSYM    DATA     BIT       P35
      000000A0H.6 SFRSYM    DATA     BIT       P26
      00000090H.7 SFRSYM    DATA     BIT       P17
      000000F8H.2 SFRSYM    DATA     BIT       P72
      000000E8H.3 SFRSYM    DATA     BIT       P63
      000000C8H.4 SFRSYM    DATA     BIT       P54
      000000C0H.5 SFRSYM    DATA     BIT       P45
      000000B0H.6 SFRSYM    DATA     BIT       P36
      000000A0H.7 SFRSYM    DATA     BIT       P27
      000000F8H.3 SFRSYM    DATA     BIT       P73
      000000E8H.4 SFRSYM    DATA     BIT       P64
      000000C8H.5 SFRSYM    DATA     BIT       P55
      000000C0H.6 SFRSYM    DATA     BIT       P46
      000000B0H.7 SFRSYM    DATA     BIT       P37
      000000F8H.4 SFRSYM    DATA     BIT       P74
      000000E8H.5 SFRSYM    DATA     BIT       P65
      000000C8H.6 SFRSYM    DATA     BIT       P56
LX51 LINKER/LOCATER V4.66.93.0                                                        06/09/2021  13:46:55  PAGE 44


      000000C0H.7 SFRSYM    DATA     BIT       P47
      000000F8H.5 SFRSYM    DATA     BIT       P75
      000000E8H.6 SFRSYM    DATA     BIT       P66
      000000C8H.7 SFRSYM    DATA     BIT       P57
      000000F8H.6 SFRSYM    DATA     BIT       P76
      000000E8H.7 SFRSYM    DATA     BIT       P67
      000000F8H.7 SFRSYM    DATA     BIT       P77
      00000088H.1 SFRSYM    DATA     BIT       IE0
      000000A1H   SFRSYM    DATA     BYTE      BUS_SPEED
      00000088H.3 SFRSYM    DATA     BIT       IE1
      000000AFH   SFRSYM    DATA     BYTE      IE2
      000000F0H   SFRSYM    DATA     BYTE      B
      0000008EH   SFRSYM    DATA     BYTE      AUXR
      000000C7H   SFRSYM    DATA     BYTE      IAP_CONTR
      000000F6H   SFRSYM    DATA     BYTE      PWMCFG
      000000E0H   SFRSYM    DATA     BYTE      ACC
      000000A8H.1 SFRSYM    DATA     BIT       ET0
      000000A8H.3 SFRSYM    DATA     BIT       ET1
      00000088H.5 SFRSYM    DATA     BIT       TF0
      00000088H.7 SFRSYM    DATA     BIT       TF1
      000000FFH   SFRSYM    DATA     BYTE      RSTCFG
      000000B5H   SFRSYM    DATA     BYTE      IP2
      00000098H.2 SFRSYM    DATA     BIT       RB8
      000000DFH   SFRSYM    DATA     BYTE      IP3
      0000008CH   SFRSYM    DATA     BYTE      TH0
      000000A8H.0 SFRSYM    DATA     BIT       EX0
      00000088H.0 SFRSYM    DATA     BIT       IT0
      0000008DH   SFRSYM    DATA     BYTE      TH1
      000000A8H.2 SFRSYM    DATA     BIT       EX1
      00000098H.3 SFRSYM    DATA     BIT       TB8
      00000088H.2 SFRSYM    DATA     BIT       IT1
      000000D6H   SFRSYM    DATA     BYTE      TH2
      000000D6H   SFRSYM    DATA     BYTE      T2H
      000000D0H.0 SFRSYM    DATA     BIT       P
      000000D4H   SFRSYM    DATA     BYTE      TH3
      000000D4H   SFRSYM    DATA     BYTE      T3H
      00000098H.7 SFRSYM    DATA     BIT       SM0
      000000D2H   SFRSYM    DATA     BYTE      TH4
      000000D2H   SFRSYM    DATA     BYTE      T4H
      0000008AH   SFRSYM    DATA     BYTE      TL0
      00000098H.6 SFRSYM    DATA     BIT       SM1
      0000008BH   SFRSYM    DATA     BYTE      TL1
      00000098H.5 SFRSYM    DATA     BIT       SM2
      000000D7H   SFRSYM    DATA     BYTE      TL2
      000000D7H   SFRSYM    DATA     BYTE      T2L
      000000D5H   SFRSYM    DATA     BYTE      TL3
      000000D5H   SFRSYM    DATA     BYTE      T3L
      000000D3H   SFRSYM    DATA     BYTE      TL4
      000000D3H   SFRSYM    DATA     BYTE      T4L
      000000B8H.1 SFRSYM    DATA     BIT       PT0
      000000D0H.3 SFRSYM    DATA     BIT       RS0
      000000B8H.3 SFRSYM    DATA     BIT       PT1
      00000088H.4 SFRSYM    DATA     BIT       TR0
      000000D0H.4 SFRSYM    DATA     BIT       RS1
      000000C2H   SFRSYM    DATA     BYTE      IAP_DATA
      00000088H.6 SFRSYM    DATA     BIT       TR1
      000000C1H   SFRSYM    DATA     BYTE      WDT_CONTR
      000000B8H.0 SFRSYM    DATA     BIT       PX0
      000000B8H.2 SFRSYM    DATA     BIT       PX1
      0000009FH   SFRSYM    DATA     BYTE      IRTRIM
      000000F2H   SFRSYM    DATA     BYTE      PCA_PWM0
      000000F3H   SFRSYM    DATA     BYTE      PCA_PWM1
      000000F4H   SFRSYM    DATA     BYTE      PCA_PWM2
      00000083H   SFRSYM    DATA     BYTE      DPH
      000000D1H   SFRSYM    DATA     BYTE      T4T3M
LX51 LINKER/LOCATER V4.66.93.0                                                        06/09/2021  13:46:55  PAGE 45


      000000BEH   SFRSYM    DATA     BYTE      ADC_RESL
      00000082H   SFRSYM    DATA     BYTE      DPL
      000000CDH   SFRSYM    DATA     BYTE      SPSTAT
      000000B7H   SFRSYM    DATA     BYTE      IPH
      000000F1H   SFRSYM    DATA     BYTE      PWMSET
      0000009BH   SFRSYM    DATA     BYTE      S2BUF
      000000ADH   SFRSYM    DATA     BYTE      S3BUF
      00000098H.4 SFRSYM    DATA     BIT       REN
      00000085H   SFRSYM    DATA     BYTE      S4BUF
      0000009AH   SFRSYM    DATA     BYTE      S2CON
      000000E3H   SFRSYM    DATA     BYTE      DPS
      000000ACH   SFRSYM    DATA     BYTE      S3CON
      00000084H   SFRSYM    DATA     BYTE      S4CON
      000000EFH   SFRSYM    DATA     BYTE      AUXINTIF
      000000B9H   SFRSYM    DATA     BYTE      SADEN
      000000B0H.0 SFRSYM    DATA     BIT       RXD
      000000A9H   SFRSYM    DATA     BYTE      SADDR
      000000B0H.1 SFRSYM    DATA     BIT       TXD
      000000F0H.0 SFRSYM    DATA     BIT       B0
      000000F0H.1 SFRSYM    DATA     BIT       B1
      000000C6H   SFRSYM    DATA     BYTE      IAP_TRIG
      000000A2H   SFRSYM    DATA     BYTE      AUXR1
      000000F0H.2 SFRSYM    DATA     BIT       B2
      000000F0H.3 SFRSYM    DATA     BIT       B3
      000000F0H.4 SFRSYM    DATA     BIT       B4
      000000D0H.5 SFRSYM    DATA     BIT       F0
      0000009DH   SFRSYM    DATA     BYTE      IRCBAND
      000000F0H.5 SFRSYM    DATA     BIT       B5
      000000D0H.1 SFRSYM    DATA     BIT       F1
      0000008FH   SFRSYM    DATA     BYTE      INT_CLKO
      000000F0H.6 SFRSYM    DATA     BIT       B6
      000000E0H.0 SFRSYM    DATA     BIT       ACC0
      000000F0H.7 SFRSYM    DATA     BIT       B7
      000000E0H.1 SFRSYM    DATA     BIT       ACC1
      000000E0H.2 SFRSYM    DATA     BIT       ACC2
      000000E0H.3 SFRSYM    DATA     BIT       ACC3
      000000D0H   SFRSYM    DATA     BYTE      PSW
      000000E0H.4 SFRSYM    DATA     BIT       ACC4
      000000E0H.5 SFRSYM    DATA     BIT       ACC5
      000000D8H.0 SFRSYM    DATA     BIT       CCF0
      000000E0H.6 SFRSYM    DATA     BIT       ACC6
      000000D8H.1 SFRSYM    DATA     BIT       CCF1
      000000CFH   SFRSYM    DATA     BYTE      SPDAT
      00000094H   SFRSYM    DATA     BYTE      P0M0

      01000B67H   BLOCK     CODE     ---       LVL=0
      01000B67H   LINE      CODE     ---       #23
      01000B74H   LINE      CODE     ---       #25
      01000B77H   LINE      CODE     ---       #26
      01000B77H   LINE      CODE     ---       #27
      01000B79H   LINE      CODE     ---       #28
      01000B7DH   LINE      CODE     ---       #29
      01000B7DH   LINE      CODE     ---       #30
      01000B8BH   LINE      CODE     ---       #31
      01000B9CH   LINE      CODE     ---       #32
      01000B9FH   LINE      CODE     ---       #33
      01000B9FH   LINE      CODE     ---       #34
      01000B9FH   LINE      CODE     ---       #36
      01000BA2H   LINE      CODE     ---       #37
      01000BA2H   LINE      CODE     ---       #38
      01000BA4H   LINE      CODE     ---       #39
      01000BA7H   LINE      CODE     ---       #47
      01000BA7H   LINE      CODE     ---       #48
      ---         BLOCKEND  ---      ---       LVL=0

LX51 LINKER/LOCATER V4.66.93.0                                                        06/09/2021  13:46:55  PAGE 46


      ---         MODULE    ---      ---       STC8A_EXTI_ISR
      01000C9AH   PUBLIC    CODE     ---       INT4_ISR_Handler
      01000C96H   PUBLIC    CODE     ---       INT3_ISR_Handler
      0100007DH   PUBLIC    CODE     ---       INT2_ISR_Handler
      01000079H   PUBLIC    CODE     ---       INT1_ISR_Handler
      01000056H   PUBLIC    CODE     ---       INT0_ISR_Handler
      000000E0H.7 SFRSYM    DATA     BIT       ACC7
      000000D8H.2 SFRSYM    DATA     BIT       CCF2
      00000093H   SFRSYM    DATA     BYTE      P0M1
      00000092H   SFRSYM    DATA     BYTE      P1M0
      000000D8H.3 SFRSYM    DATA     BIT       CCF3
      00000096H   SFRSYM    DATA     BYTE      P2M0
      00000091H   SFRSYM    DATA     BYTE      P1M1
      00000080H   SFRSYM    DATA     BYTE      P0
      000000B2H   SFRSYM    DATA     BYTE      P3M0
      00000095H   SFRSYM    DATA     BYTE      P2M1
      00000090H   SFRSYM    DATA     BYTE      P1
      000000B4H   SFRSYM    DATA     BYTE      P4M0
      000000B1H   SFRSYM    DATA     BYTE      P3M1
      000000A0H   SFRSYM    DATA     BYTE      P2
      000000CAH   SFRSYM    DATA     BYTE      P5M0
      000000B3H   SFRSYM    DATA     BYTE      P4M1
      000000B0H   SFRSYM    DATA     BYTE      P3
      000000ABH   SFRSYM    DATA     BYTE      WKTCH
      000000B0H.4 SFRSYM    DATA     BIT       T0
      000000D0H.6 SFRSYM    DATA     BIT       AC
      000000CCH   SFRSYM    DATA     BYTE      P6M0
      000000C9H   SFRSYM    DATA     BYTE      P5M1
      000000C0H   SFRSYM    DATA     BYTE      P4
      000000B0H.5 SFRSYM    DATA     BIT       CLKOUT0
      000000B0H.5 SFRSYM    DATA     BIT       T1
      000000E2H   SFRSYM    DATA     BYTE      P7M0
      000000CBH   SFRSYM    DATA     BYTE      P6M1
      000000C8H   SFRSYM    DATA     BYTE      P5
      000000A8H.7 SFRSYM    DATA     BIT       EA
      000000B0H.4 SFRSYM    DATA     BIT       CLKOUT1
      000000E8H   SFRSYM    DATA     BYTE      P6
      000000E1H   SFRSYM    DATA     BYTE      P7M1
      00000090H.1 SFRSYM    DATA     BIT       CCP0
      000000F8H   SFRSYM    DATA     BYTE      P7
      000000AAH   SFRSYM    DATA     BYTE      WKTCL
      00000090H.0 SFRSYM    DATA     BIT       CCP1
      000000CEH   SFRSYM    DATA     BYTE      SPCTL
      000000B0H.7 SFRSYM    DATA     BIT       CCP2
      000000D8H.7 SFRSYM    DATA     BIT       CF
      000000F9H   SFRSYM    DATA     BYTE      CH
      000000A2H   SFRSYM    DATA     BYTE      P_SW1
      000000BAH   SFRSYM    DATA     BYTE      P_SW2
      000000A8H.5 SFRSYM    DATA     BIT       EADC
      000000E5H   SFRSYM    DATA     BYTE      DPH1
      000000A8H   SFRSYM    DATA     BYTE      IE
      000000E9H   SFRSYM    DATA     BYTE      CL
      000000C5H   SFRSYM    DATA     BYTE      IAP_CMD
      000000FAH   SFRSYM    DATA     BYTE      CCAP0H
      000000FBH   SFRSYM    DATA     BYTE      CCAP1H
      000000E4H   SFRSYM    DATA     BYTE      DPL1
      000000FCH   SFRSYM    DATA     BYTE      CCAP2H
      000000BDH   SFRSYM    DATA     BYTE      ADC_RES
      000000B6H   SFRSYM    DATA     BYTE      IP2H
      000000EEH   SFRSYM    DATA     BYTE      IP3H
      000000EAH   SFRSYM    DATA     BYTE      CCAP0L
      000000D8H.6 SFRSYM    DATA     BIT       CR
      000000AEH   SFRSYM    DATA     BYTE      TA
      000000B0H.7 SFRSYM    DATA     BIT       RD
      000000EBH   SFRSYM    DATA     BYTE      CCAP1L
LX51 LINKER/LOCATER V4.66.93.0                                                        06/09/2021  13:46:55  PAGE 47


      000000DAH   SFRSYM    DATA     BYTE      CCAPM0
      000000ECH   SFRSYM    DATA     BYTE      CCAP2L
      000000DBH   SFRSYM    DATA     BYTE      CCAPM1
      000000A8H.4 SFRSYM    DATA     BIT       ES
      000000DCH   SFRSYM    DATA     BYTE      CCAPM2
      000000B8H.5 SFRSYM    DATA     BIT       PADC
      000000B8H   SFRSYM    DATA     BYTE      IP
      000000DEH   SFRSYM    DATA     BYTE      ADCCFG
      00000098H.0 SFRSYM    DATA     BIT       RI
      000000B0H.2 SFRSYM    DATA     BIT       INT0
      000000D0H.7 SFRSYM    DATA     BIT       CY
      00000098H.1 SFRSYM    DATA     BIT       TI
      000000B0H.3 SFRSYM    DATA     BIT       INT1
      000000B0H.6 SFRSYM    DATA     BIT       INT2
      000000B0H.7 SFRSYM    DATA     BIT       INT3
      000000B0H.0 SFRSYM    DATA     BIT       INT4
      000000C3H   SFRSYM    DATA     BYTE      IAP_ADDRH
      00000090H.0 SFRSYM    DATA     BIT       RXD2
      00000090H.1 SFRSYM    DATA     BIT       TXD2
      000000B8H.4 SFRSYM    DATA     BIT       PS
      00000081H   SFRSYM    DATA     BYTE      SP
      000000D9H   SFRSYM    DATA     BYTE      CMOD
      000000D8H   SFRSYM    DATA     BYTE      CCON
      000000C4H   SFRSYM    DATA     BYTE      IAP_ADDRL
      000000D0H.2 SFRSYM    DATA     BIT       OV
      000000B8H.7 SFRSYM    DATA     BIT       PPCA
      0000009EH   SFRSYM    DATA     BYTE      LIRTRIM
      000000E6H   SFRSYM    DATA     BYTE      CMPCR1
      000000B0H.6 SFRSYM    DATA     BIT       WR
      000000E7H   SFRSYM    DATA     BYTE      CMPCR2
      000000A8H.6 SFRSYM    DATA     BIT       ELVD
      00000080H.0 SFRSYM    DATA     BIT       P00
      00000090H.0 SFRSYM    DATA     BIT       P10
      00000080H.1 SFRSYM    DATA     BIT       P01
      000000BCH   SFRSYM    DATA     BYTE      ADC_CONTR
      00000099H   SFRSYM    DATA     BYTE      SBUF
      00000087H   SFRSYM    DATA     BYTE      PCON
      000000A0H.0 SFRSYM    DATA     BIT       P20
      00000090H.1 SFRSYM    DATA     BIT       P11
      00000080H.2 SFRSYM    DATA     BIT       P02
      000000B0H.0 SFRSYM    DATA     BIT       P30
      000000A0H.1 SFRSYM    DATA     BIT       P21
      00000090H.2 SFRSYM    DATA     BIT       P12
      00000080H.3 SFRSYM    DATA     BIT       P03
      000000F5H   SFRSYM    DATA     BYTE      IAP_TPS
      000000C0H.0 SFRSYM    DATA     BIT       P40
      000000B0H.1 SFRSYM    DATA     BIT       P31
      000000A0H.2 SFRSYM    DATA     BIT       P22
      00000090H.3 SFRSYM    DATA     BIT       P13
      00000080H.4 SFRSYM    DATA     BIT       P04
      00000098H   SFRSYM    DATA     BYTE      SCON
      000000C8H.0 SFRSYM    DATA     BIT       P50
      000000C0H.1 SFRSYM    DATA     BIT       P41
      000000B0H.2 SFRSYM    DATA     BIT       P32
      000000A0H.3 SFRSYM    DATA     BIT       P23
      00000090H.4 SFRSYM    DATA     BIT       P14
      00000080H.5 SFRSYM    DATA     BIT       P05
      00000089H   SFRSYM    DATA     BYTE      TMOD
      00000088H   SFRSYM    DATA     BYTE      TCON
      000000E8H.0 SFRSYM    DATA     BIT       P60
      000000C8H.1 SFRSYM    DATA     BIT       P51
      000000C0H.2 SFRSYM    DATA     BIT       P42
      000000B0H.3 SFRSYM    DATA     BIT       P33
      000000A0H.4 SFRSYM    DATA     BIT       P24
      00000090H.5 SFRSYM    DATA     BIT       P15
LX51 LINKER/LOCATER V4.66.93.0                                                        06/09/2021  13:46:55  PAGE 48


      00000080H.6 SFRSYM    DATA     BIT       P06
      000000F8H.0 SFRSYM    DATA     BIT       P70
      000000E8H.1 SFRSYM    DATA     BIT       P61
      000000C8H.2 SFRSYM    DATA     BIT       P52
      000000C0H.3 SFRSYM    DATA     BIT       P43
      000000B0H.4 SFRSYM    DATA     BIT       P34
      000000A0H.5 SFRSYM    DATA     BIT       P25
      00000090H.6 SFRSYM    DATA     BIT       P16
      00000080H.7 SFRSYM    DATA     BIT       P07
      000000B8H.6 SFRSYM    DATA     BIT       PLVD
      000000F8H.1 SFRSYM    DATA     BIT       P71
      000000E8H.2 SFRSYM    DATA     BIT       P62
      000000C8H.3 SFRSYM    DATA     BIT       P53
      000000C0H.4 SFRSYM    DATA     BIT       P44
      000000B0H.5 SFRSYM    DATA     BIT       P35
      000000A0H.6 SFRSYM    DATA     BIT       P26
      00000090H.7 SFRSYM    DATA     BIT       P17
      000000F8H.2 SFRSYM    DATA     BIT       P72
      000000E8H.3 SFRSYM    DATA     BIT       P63
      000000C8H.4 SFRSYM    DATA     BIT       P54
      000000C0H.5 SFRSYM    DATA     BIT       P45
      000000B0H.6 SFRSYM    DATA     BIT       P36
      000000A0H.7 SFRSYM    DATA     BIT       P27
      000000F8H.3 SFRSYM    DATA     BIT       P73
      000000E8H.4 SFRSYM    DATA     BIT       P64
      000000C8H.5 SFRSYM    DATA     BIT       P55
      000000C0H.6 SFRSYM    DATA     BIT       P46
      000000B0H.7 SFRSYM    DATA     BIT       P37
      000000F8H.4 SFRSYM    DATA     BIT       P74
      000000E8H.5 SFRSYM    DATA     BIT       P65
      000000C8H.6 SFRSYM    DATA     BIT       P56
      000000C0H.7 SFRSYM    DATA     BIT       P47
      000000F8H.5 SFRSYM    DATA     BIT       P75
      000000E8H.6 SFRSYM    DATA     BIT       P66
      000000C8H.7 SFRSYM    DATA     BIT       P57
      000000F8H.6 SFRSYM    DATA     BIT       P76
      000000E8H.7 SFRSYM    DATA     BIT       P67
      000000F8H.7 SFRSYM    DATA     BIT       P77
      00000088H.1 SFRSYM    DATA     BIT       IE0
      000000A1H   SFRSYM    DATA     BYTE      BUS_SPEED
      00000088H.3 SFRSYM    DATA     BIT       IE1
      000000AFH   SFRSYM    DATA     BYTE      IE2
      000000F0H   SFRSYM    DATA     BYTE      B
      0000008EH   SFRSYM    DATA     BYTE      AUXR
      000000C7H   SFRSYM    DATA     BYTE      IAP_CONTR
      000000F6H   SFRSYM    DATA     BYTE      PWMCFG
      000000E0H   SFRSYM    DATA     BYTE      ACC
      000000A8H.1 SFRSYM    DATA     BIT       ET0
      000000A8H.3 SFRSYM    DATA     BIT       ET1
      00000088H.5 SFRSYM    DATA     BIT       TF0
      00000088H.7 SFRSYM    DATA     BIT       TF1
      000000FFH   SFRSYM    DATA     BYTE      RSTCFG
      000000B5H   SFRSYM    DATA     BYTE      IP2
      00000098H.2 SFRSYM    DATA     BIT       RB8
      000000DFH   SFRSYM    DATA     BYTE      IP3
      0000008CH   SFRSYM    DATA     BYTE      TH0
      000000A8H.0 SFRSYM    DATA     BIT       EX0
      00000088H.0 SFRSYM    DATA     BIT       IT0
      0000008DH   SFRSYM    DATA     BYTE      TH1
      000000A8H.2 SFRSYM    DATA     BIT       EX1
      00000098H.3 SFRSYM    DATA     BIT       TB8
      00000088H.2 SFRSYM    DATA     BIT       IT1
      000000D6H   SFRSYM    DATA     BYTE      TH2
      000000D6H   SFRSYM    DATA     BYTE      T2H
      000000D0H.0 SFRSYM    DATA     BIT       P
LX51 LINKER/LOCATER V4.66.93.0                                                        06/09/2021  13:46:55  PAGE 49


      000000D4H   SFRSYM    DATA     BYTE      TH3
      000000D4H   SFRSYM    DATA     BYTE      T3H
      00000098H.7 SFRSYM    DATA     BIT       SM0
      000000D2H   SFRSYM    DATA     BYTE      TH4
      000000D2H   SFRSYM    DATA     BYTE      T4H
      0000008AH   SFRSYM    DATA     BYTE      TL0
      00000098H.6 SFRSYM    DATA     BIT       SM1
      0000008BH   SFRSYM    DATA     BYTE      TL1
      00000098H.5 SFRSYM    DATA     BIT       SM2
      000000D7H   SFRSYM    DATA     BYTE      TL2
      000000D7H   SFRSYM    DATA     BYTE      T2L
      000000D5H   SFRSYM    DATA     BYTE      TL3
      000000D5H   SFRSYM    DATA     BYTE      T3L
      000000D3H   SFRSYM    DATA     BYTE      TL4
      000000D3H   SFRSYM    DATA     BYTE      T4L
      000000B8H.1 SFRSYM    DATA     BIT       PT0
      000000D0H.3 SFRSYM    DATA     BIT       RS0
      000000B8H.3 SFRSYM    DATA     BIT       PT1
      00000088H.4 SFRSYM    DATA     BIT       TR0
      000000D0H.4 SFRSYM    DATA     BIT       RS1
      000000C2H   SFRSYM    DATA     BYTE      IAP_DATA
      00000088H.6 SFRSYM    DATA     BIT       TR1
      000000C1H   SFRSYM    DATA     BYTE      WDT_CONTR
      000000B8H.0 SFRSYM    DATA     BIT       PX0
      000000B8H.2 SFRSYM    DATA     BIT       PX1
      0000009FH   SFRSYM    DATA     BYTE      IRTRIM
      000000F2H   SFRSYM    DATA     BYTE      PCA_PWM0
      000000F3H   SFRSYM    DATA     BYTE      PCA_PWM1
      000000F4H   SFRSYM    DATA     BYTE      PCA_PWM2
      00000083H   SFRSYM    DATA     BYTE      DPH
      000000D1H   SFRSYM    DATA     BYTE      T4T3M
      000000BEH   SFRSYM    DATA     BYTE      ADC_RESL
      00000082H   SFRSYM    DATA     BYTE      DPL
      000000CDH   SFRSYM    DATA     BYTE      SPSTAT
      000000B7H   SFRSYM    DATA     BYTE      IPH
      000000F1H   SFRSYM    DATA     BYTE      PWMSET
      0000009BH   SFRSYM    DATA     BYTE      S2BUF
      000000ADH   SFRSYM    DATA     BYTE      S3BUF
      00000098H.4 SFRSYM    DATA     BIT       REN
      00000085H   SFRSYM    DATA     BYTE      S4BUF
      0000009AH   SFRSYM    DATA     BYTE      S2CON
      000000E3H   SFRSYM    DATA     BYTE      DPS
      000000ACH   SFRSYM    DATA     BYTE      S3CON
      00000084H   SFRSYM    DATA     BYTE      S4CON
      000000EFH   SFRSYM    DATA     BYTE      AUXINTIF
      000000B9H   SFRSYM    DATA     BYTE      SADEN
      000000B0H.0 SFRSYM    DATA     BIT       RXD
      000000A9H   SFRSYM    DATA     BYTE      SADDR
      000000B0H.1 SFRSYM    DATA     BIT       TXD
      000000F0H.0 SFRSYM    DATA     BIT       B0
      000000F0H.1 SFRSYM    DATA     BIT       B1
      000000C6H   SFRSYM    DATA     BYTE      IAP_TRIG
      000000A2H   SFRSYM    DATA     BYTE      AUXR1
      000000F0H.2 SFRSYM    DATA     BIT       B2
      000000F0H.3 SFRSYM    DATA     BIT       B3
      000000F0H.4 SFRSYM    DATA     BIT       B4
      000000D0H.5 SFRSYM    DATA     BIT       F0
      0000009DH   SFRSYM    DATA     BYTE      IRCBAND
      000000F0H.5 SFRSYM    DATA     BIT       B5
      000000D0H.1 SFRSYM    DATA     BIT       F1
      0000008FH   SFRSYM    DATA     BYTE      INT_CLKO
      000000F0H.6 SFRSYM    DATA     BIT       B6
      000000E0H.0 SFRSYM    DATA     BIT       ACC0
      000000F0H.7 SFRSYM    DATA     BIT       B7
      000000E0H.1 SFRSYM    DATA     BIT       ACC1
LX51 LINKER/LOCATER V4.66.93.0                                                        06/09/2021  13:46:55  PAGE 50


      000000E0H.2 SFRSYM    DATA     BIT       ACC2
      000000E0H.3 SFRSYM    DATA     BIT       ACC3
      000000D0H   SFRSYM    DATA     BYTE      PSW
      000000E0H.4 SFRSYM    DATA     BIT       ACC4
      000000E0H.5 SFRSYM    DATA     BIT       ACC5
      000000D8H.0 SFRSYM    DATA     BIT       CCF0
      000000E0H.6 SFRSYM    DATA     BIT       ACC6
      000000D8H.1 SFRSYM    DATA     BIT       CCF1
      000000CFH   SFRSYM    DATA     BYTE      SPDAT
      00000094H   SFRSYM    DATA     BYTE      P0M0

      01000056H   BLOCK     CODE     ---       LVL=0
      01000056H   LINE      CODE     ---       #28
      01000056H   LINE      CODE     ---       #32
      01000059H   LINE      CODE     ---       #33
      ---         BLOCKEND  ---      ---       LVL=0

      01000079H   BLOCK     CODE     ---       LVL=0
      01000079H   LINE      CODE     ---       #42
      01000079H   LINE      CODE     ---       #46
      0100007CH   LINE      CODE     ---       #47
      ---         BLOCKEND  ---      ---       LVL=0

      0100007DH   BLOCK     CODE     ---       LVL=0
      0100007DH   LINE      CODE     ---       #56
      0100007DH   LINE      CODE     ---       #60
      01000080H   LINE      CODE     ---       #61
      ---         BLOCKEND  ---      ---       LVL=0

      01000C96H   BLOCK     CODE     ---       LVL=0
      01000C96H   LINE      CODE     ---       #70
      01000C96H   LINE      CODE     ---       #74
      01000C99H   LINE      CODE     ---       #75
      ---         BLOCKEND  ---      ---       LVL=0

      01000C9AH   BLOCK     CODE     ---       LVL=0
      01000C9AH   LINE      CODE     ---       #84
      01000C9AH   LINE      CODE     ---       #88
      01000C9DH   LINE      CODE     ---       #89
      ---         BLOCKEND  ---      ---       LVL=0

      ---         MODULE    ---      ---       ?C_STARTUP
      01000000H   PUBLIC    CODE     ---       ?C_STARTUP

      ---         MODULE    ---      ---       ?C?CLDPTR
      01000659H   PUBLIC    CODE     ---       ?C?CLDPTR

      ---         MODULE    ---      ---       ?C?CLDOPTR
      01000672H   PUBLIC    CODE     ---       ?C?CLDOPTR

      ---         MODULE    ---      ---       ?C?ULDIV
      010006DBH   PUBLIC    CODE     ---       ?C?ULDIV

      ---         MODULE    ---      ---       ?C?ULCMP
      0100076DH   PUBLIC    CODE     ---       ?C?ULCMP

      ---         MODULE    ---      ---       ?C?ULSHR
      0100077EH   PUBLIC    CODE     ---       ?C?ULSHR

      ---         MODULE    ---      ---       ?C?LLDOPTR0
      01000791H   PUBLIC    CODE     ---       ?C?LLDOPTR0

      ---         MODULE    ---      ---       PRINTF
      00000008H   PUBLIC    DATA     ---       ?_PRINTF517?BYTE
      00000008H   PUBLIC    DATA     ---       ?_PRINTF?BYTE
LX51 LINKER/LOCATER V4.66.93.0                                                        06/09/2021  13:46:55  PAGE 51


      00000008H   PUBLIC    DATA     ---       ?_SPRINTF517?BYTE
      00000008H   PUBLIC    DATA     ---       ?_SPRINTF?BYTE
      010000E8H   PUBLIC    CODE     ---       _PRINTF
      010000E8H   PUBLIC    CODE     ---       _PRINTF517
      010000E2H   PUBLIC    CODE     ---       _SPRINTF
      010000E2H   PUBLIC    CODE     ---       _SPRINTF517

      ---         MODULE    ---      ---       ?C?CSTPTR
      010007C1H   PUBLIC    CODE     ---       ?C?CSTPTR

      ---         MODULE    ---      ---       ?C?LLDIDATA0
      010007D3H   PUBLIC    CODE     ---       ?C?LLDIDATA0

      ---         MODULE    ---      ---       ?C?LLDXDATA0
      010007E0H   PUBLIC    CODE     ---       ?C?LLDXDATA0

      ---         MODULE    ---      ---       ?C?LLDPDATA0
      010007ECH   PUBLIC    CODE     ---       ?C?LLDPDATA0

      ---         MODULE    ---      ---       ?C?LLDCODE0
      010007F9H   PUBLIC    CODE     ---       ?C?LLDCODE0

      ---         MODULE    ---      ---       ?C?PLDIIDATA
      01000809H   PUBLIC    CODE     ---       ?C?PLDIIDATA

      ---         MODULE    ---      ---       ?C?CCASE
      01000819H   PUBLIC    CODE     ---       ?C?CCASE

Program Size: data=39.1 xdata=256 const=130 code=3222
LX51 RUN COMPLETE.  0 WARNING(S),  0 ERROR(S)
